LIBRARY devshl 
DESCRIPTION "VSHELL_DLL" 
; For Win32 DLLs, only EXPORTs really required.

EXPORTS
	IsShellDefFileVersion
	?g_pProjectTemplate@@3PAVCDocTemplate@@A @ 16 NONAME DATA
	?findReplace@@3UFINDREPLACEDISK@@A @ 17 NONAME DATA
	?s_pwi@CPartFrame@@1PAUWORKSPACE_INFO@@A @ 18 NONAME DATA
	 ??_9@$BCE@AG @ 19 NONAME
	 ??_9@$BCI@AG @ 20 NONAME
	 ??_9@$BCM@AG @ 21 NONAME
	 ??_9@$BDA@AG @ 22 NONAME
	 ??_9@$BDE@AG @ 23 NONAME
	 ??_9@$BDI@AG @ 24 NONAME
	 ??_9@$BDM@AG @ 25 NONAME
	 ??_9@$BMA@AE @ 26 NONAME
	 ??_9@$BME@AE @ 27 NONAME
	 ??_9@$BMI@AE @ 28 NONAME
	 ??_9@$BNM@AE @ 29 NONAME
	 ??_9@$BOA@AE @ 30 NONAME
	 ??_9@$BOE@AE @ 31 NONAME
	 ??_9@$BOI@AE @ 32 NONAME
	 ??_9@$BOM@AE @ 33 NONAME
	 ??_9@$BPE@AE @ 34 NONAME
	 ??_9@$BPI@AE @ 35 NONAME
	 ??_H@YGXPAXIHP6EX0@Z@Z @ 36 NONAME
	 ??0?$CTypedPtrList@VCObList@@PAVCBMenuPopup@@@@QAE@H@Z @ 37 NONAME
	 ??0C3dBitmapButton@@QAE@XZ @ 38 NONAME
	 ??0C3dDialog@@QAE@IPAVCWnd@@@Z @ 39 NONAME
	 ??0C3dDialog@@QAE@PBDPAVCWnd@@@Z @ 40 NONAME
	 ??0C3dDialogBar@@QAE@XZ @ 41 NONAME
	 ??0C3dFileDialog@@QAE@HPBD0K0PAVCWnd@@II@Z @ 42 NONAME
	 ??0C3dFontDialog@@QAE@PAUtagLOGFONTA@@KPAVCDC@@PAVCWnd@@@Z @ 43 NONAME
	 ??0C3dPropertyPage@@QAE@XZ @ 44 NONAME
	 ??0CAboutDlg@@QAE@XZ @ 45 NONAME
	 ??0CAddFilesDialog@@QAE@PAUIPkgProject@@ABVCString@@@Z @ 46 NONAME
	 ??0CAddFilesDialog@@QAE@XZ @ 47 NONAME
	 ??0CAddOn@@QAE@H@Z @ 48 NONAME
	 ??0CAddOn@@QAE@XZ @ 49 NONAME
	 ??0CApplication@@QAE@XZ @ 50 NONAME
	 ??0CApplicationFactory@@QAE@ABU_GUID@@PAUCRuntimeClass@@HPBD@Z @ 51 NONAME
	 ??0CAppSlob@@QAE@XZ @ 52 NONAME
	 ??0CAppToolGroups@@QAE@XZ @ 53 NONAME
	 ??0CASBar@@QAE@XZ @ 54 NONAME
	 ??0CAutoCollection@@QAE@PAV?$CTypedPtrList@VCPtrList@@PAUIDispatch@@@@@Z @ 55 NONAME
	 ??0CAutoDocumentDefault@@QAE@PAVCPartDoc@@@Z @ 56 NONAME
	 ??0CAutoDocuments@@QAE@XZ @ 57 NONAME
	 ??0CAutoProjects@@QAE@XZ @ 58 NONAME
	 ??0CAutosave@@QAE@XZ @ 59 NONAME
	 ??0CAutoWindowDefault@@QAE@PAVCPartFrame@@@Z @ 60 NONAME
	 ??0CAutoWindows@@QAE@PAVCPartDoc@@@Z @ 61 NONAME
	 ??0CBContextPopupMenu@@QAE@XZ @ 62 NONAME
	 ??0CBitmap@@QAE@XZ @ 63 NONAME
	 ??0CBitmapButton@@QAE@XZ @ 64 NONAME
	 ??0CBitmapWnd@@QAE@XZ @ 65 NONAME
	 ??0CBldWizSelectDlg@@QAE@PAVCWnd@@@Z @ 66 NONAME
	 ??0CBMenuItem@@QAE@XZ @ 67 NONAME
	 ??0CBMenuPopup@@QAE@XZ @ 68 NONAME
	 ??0CBorderBar@@QAE@XZ @ 69 NONAME
	 ??0CBrush@@QAE@XZ @ 70 NONAME
	 ??0CBuilderWizardManager@@QAE@XZ @ 71 NONAME
	 ??0CButton@@QAE@XZ @ 72 NONAME
	 ??0CButtonDragListBox@@QAE@XZ @ 73 NONAME
	 ??0CButtonEdit@@QAE@XZ @ 74 NONAME
	 ??0CBWizEnumItem@@QAE@PBD0@Z @ 75 NONAME
	 ??0CBWizEnumItem@@QAE@XZ @ 76 NONAME
	 ??0CCheckList@@QAE@XZ @ 77 NONAME
	 ??0CChoiceBar@@QAE@XZ @ 78 NONAME
	 ??0CClipboardSlob@@QAE@XZ @ 79 NONAME
	 ??0CCmd@@QAE@GGGPBD@Z @ 80 NONAME
	 ??0CCmdCache@@QAE@XZ @ 81 NONAME
	 ??0CCmdGroup@@QAE@G@Z @ 82 NONAME
	 ??0CCmdGroupSeparator@@QAE@G@Z @ 83 NONAME
	 ??0CCmdMenu@@QAE@GGGABVCString@@PAVCPackage@@@Z @ 84 NONAME
	 ??0CColorCombo@@QAE@XZ @ 85 NONAME
	 ??0CConsoleSpawner@@QAE@PAPAV0@@Z @ 86 NONAME
	 ??0CContextPopupMenu@@QAE@XZ @ 87 NONAME
	 ??0CCPLReg@@QAE@XZ @ 88 NONAME
	 ??0CCurDir@@QAE@ABVCDir@@@Z @ 89 NONAME
	 ??0CCurDir@@QAE@PBDH@Z @ 90 NONAME
	 ??0CCurDir@@QAE@XZ @ 91 NONAME
	 ??0CCustomBar@@QAE@XZ @ 92 NONAME
	 ??0CCustomButtonDlg@@QAE@VCString@@0W4APPEARANCE@@PAVCDockManager@@W4APPEARANCEOPTION@@3PAUHBITMAP__@@HPAVCWnd@@@Z @ 93 NONAME
	 ??0CCustomDialog@@QAE@PAVCDockManager@@PAVCWnd@@@Z @ 94 NONAME
	 ??0CCustomizeToolsDialog@@QAE@XZ @ 95 NONAME
	 ??0CDefProvidedNode@@QAE@XZ @ 96 NONAME
	 ??0CDialogArg@@QAE@PAVCTool@@PAVCWnd@@@Z @ 97 NONAME
	 ??0CDir@@QAE@XZ @ 98 NONAME
	 ??0CDirChooser@@QAE@PBD00I@Z @ 99 NONAME
	 ??0CDirList@@QAE@H@Z @ 100 NONAME
	 ??0CDlgTab@@IAE@XZ @ 101 NONAME
	 ??0CDlgTab@@QAE@II@Z @ 102 NONAME
	 ??0CDlgTab@@QAE@PBDI@Z @ 103 NONAME
	 ??0CDllApi@@QAE@PBDPAUMPSZPFN@@@Z @ 104 NONAME
	 ??0CDockablePartView@@IAE@XZ @ 105 NONAME
	 ??0CDockCombo@@QAE@H@Z @ 106 NONAME
	 ??0CDockComboEdit@@QAE@H@Z @ 107 NONAME
	 ??0CDockManager@@QAE@XZ @ 108 NONAME
	 ??0CDockWnd@@IAE@XZ @ 109 NONAME
	 ??0CDockWnd@@QAE@W4DOCKPOS@@@Z @ 110 NONAME
	 ??0CDockWorker@@IAE@XZ @ 111 NONAME
	 ??0CDockWorker@@QAE@PAUDOCKINIT@@@Z @ 112 NONAME
	 ??0CDocObjectContainerItem@@QAE@PAVCOleDocument@@@Z @ 113 NONAME
	 ??0CDocObjectDoc@@IAE@XZ @ 114 NONAME
	 ??0CDocObjectFrame@@QAE@XZ @ 115 NONAME
	 ??0CDocObjectFrameHook@@QAE@PAVCFrameWnd@@PAVCOleClientItem@@@Z @ 116 NONAME
	 ??0CDocObjectTemplate@@QAE@PAVCPackage@@ABU_GUID@@ABVCString@@22PAUHICON__@@PAUCRuntimeClass@@4@Z @ 117 NONAME
	 ??0CDocObjectView@@IAE@XZ @ 118 NONAME
	 ??0CDragNDrop@@QAE@VCPoint@@PAVCSlob@@@Z @ 119 NONAME
	 ??0CDropControl@@QAE@XZ @ 120 NONAME
	 ??0CElList@@QAE@I@Z @ 121 NONAME
	 ??0CEnumOleUndoUnit@@QAE@PAUIOleUndoManager@@PAV?$CTypedPtrList@VCPtrList@@PAUIOleUndoUnit@@@@@Z @ 122 NONAME
	 ??0CEnumOleUndoUnit@@QAE@PAUIOleUndoManager@@PAV?$CTypedPtrList@VCPtrList@@PAUIOleUndoUnit@@@@K@Z @ 123 NONAME
	 ??0CEnumVariantObjs@@QAE@PAV?$CTypedPtrList@VCPtrList@@PAUIDispatch@@@@@Z @ 124 NONAME
	 ??0CErrorContext@@QAE@XZ @ 125 NONAME
	 ??0CFCDialogState@@QAE@PAVCFontColorDlg@@@Z @ 126 NONAME
	 ??0CFileChange@@QAE@XZ @ 127 NONAME
	 ??0CFileData@@QAE@PBD@Z @ 128 NONAME
	 ??0CFileFindDlg@@QAE@PBD000@Z @ 129 NONAME
	 ??0CFileNewTabbedDialog@@QAE@HHH@Z @ 130 NONAME
	 ??0CFileNewWizardTemplate@@QAE@PAVCPackage@@ABU_GUID@@VCString@@PAUHICON__@@@Z @ 131 NONAME
	 ??0CFileOpenReturn@@QAE@PBD@Z @ 132 NONAME
	 ??0CFileSaver@@QAE@PBD@Z @ 133 NONAME
	 ??0CFindCombo@@QAE@XZ @ 134 NONAME
	 ??0CFindStringDlg@@QAE@JPAVCWnd@@@Z @ 135 NONAME
	 ??0CFloatingFrameBar@@QAE@XZ @ 136 NONAME
	 ??0CFloatingFrameWnd@@QAE@XZ @ 137 NONAME
	 ??0CFmtElementIterator@@QAE@ABVCObArray@@@Z @ 138 NONAME
	 ??0CFmtGroupIterator@@QAE@ABVCObArray@@@Z @ 139 NONAME
	 ??0CFmtIterator@@QAE@ABVCObArray@@@Z @ 140 NONAME
	 ??0CFmtWindowIterator@@QAE@ABVCObArray@@@Z @ 141 NONAME
	 ??0CFont@@QAE@XZ @ 142 NONAME
	 ??0CFontColorDlg@@QAE@PAVCWnd@@@Z @ 143 NONAME
	 ??0CFontNameCombo@@QAE@XZ @ 144 NONAME
	 ??0CFormatInfo@@QAE@PAVCPackage@@@Z @ 145 NONAME
	 ??0CForwardMouseMessage@@QAE@PBUtagMSG@@@Z @ 146 NONAME
	 ??0CFullScreenState@@QAE@XZ @ 147 NONAME
	 ??0CGdiObject@@QAE@XZ @ 148 NONAME
	 ??0CGhostListBox@@QAE@XZ @ 149 NONAME
	 ??0CGoToDialog@@QAE@IPBDPAVCWnd@@@Z @ 150 NONAME
	 ??0CGoToItem@@QAE@PAVCGoToDialog@@@Z @ 151 NONAME
	 ??0CGridCaption@@QAE@PAVCGridWnd@@H@Z @ 152 NONAME
	 ??0CGridCaptionCell@@QAE@H@Z @ 153 NONAME
	 ??0CGridCell@@QAE@XZ @ 154 NONAME
	 ??0CGridCellRow@@QAE@PAVCGridWnd@@@Z @ 155 NONAME
	 ??0CGridControlRow@@QAE@PAVCGridWnd@@@Z @ 156 NONAME
	 ??0CGridControlWnd@@QAE@HH@Z @ 157 NONAME
	 ??0CGridCtl3dInterface@@QAE@XZ @ 158 NONAME
	 ??0CGridRow@@QAE@PAVCGridWnd@@@Z @ 159 NONAME
	 ??0CGridToolBar@@QAE@XZ @ 160 NONAME
	 ??0CGridWnd@@QAE@HH@Z @ 161 NONAME
	 ??0CHaltRecording@@QAE@XZ @ 162 NONAME
	 ??0CHelpKeyGrid@@QAE@H@Z @ 163 NONAME
	 ??0CHelpKeyGridRow@@QAE@PAVCGridWnd@@@Z @ 164 NONAME
	 ??0CHelpKeyWnd@@QAE@XZ @ 165 NONAME
	 ??0CIdeInterface@@QAE@XZ @ 166 NONAME
	 ??0CIdisFileDialog@@QAE@HPAVCDocument@@PBD1K1PAVCWnd@@I@Z @ 167 NONAME
	 ??0CImageWell@@QAE@IVCSize@@@Z @ 168 NONAME
	 ??0CImageWell@@QAE@XZ @ 169 NONAME
	 ??0CIME@@QAE@XZ @ 170 NONAME
	 ??0CInformRecord@@QAE@PAVCSlob@@I@Z @ 171 NONAME
	 ??0CInitFile@@QAE@XZ @ 172 NONAME
	 ??0CInternalApp@@QAE@XZ @ 173 NONAME
	 ??0CInternalTrackSelection@@QAE@PAVCIPCompSlob@@@Z @ 174 NONAME
	 ??0CIPCompBuilderWizardManager@@QAE@PAVCIPCompContainerItem@@@Z @ 175 NONAME
	 ??0CIPCompContainerItem@@QAE@PAVCOleDocument@@@Z @ 176 NONAME
	 ??0CIPCompDoc@@QAE@XZ @ 177 NONAME
	 ??0CIPCompDocTemplate@@QAE@IPAUCRuntimeClass@@PAVCPackage@@PAVCPacket@@ABU_GUID@@@Z @ 178 NONAME
	 ??0CIPCompFrameHook@@QAE@PAVCFrameWnd@@0PAVCOleClientItem@@@Z @ 179 NONAME
	 ??0CIPCompHostApp@@QAE@XZ @ 180 NONAME
	 ??0CIPCompMainFrame@@QAE@XZ @ 181 NONAME
	 ??0CIPCompMessageFilter@@QAE@XZ @ 182 NONAME
	 ??0CIPCompSlob@@QAE@PAVCIPCompDoc@@@Z @ 183 NONAME
	 ??0CIPCompView@@QAE@XZ @ 184 NONAME
	 ??0CJit@@QAE@XZ @ 185 NONAME
	 ??0CKeyCustDlg@@QAE@PAUtagAccTable@@H@Z @ 186 NONAME
	 ??0CKeymap@@QAE@XZ @ 187 NONAME
	 ??0CLastTabMap@@QAE@XZ @ 188 NONAME
	 ??0CLocalizedEnumerator@@QAE@IH@Z @ 189 NONAME
	 ??0CLockDC@@QAE@PAVCWnd@@@Z @ 190 NONAME
	 ??0CMainFrame@@QAE@XZ @ 191 NONAME
	 ??0CMainGroup@@QAE@XZ @ 192 NONAME
	 ??0CMapDirToOb@@QAE@H@Z @ 193 NONAME
	 ??0CMapPathToOb@@QAE@H@Z @ 194 NONAME
	 ??0CMDIChildDock@@QAE@PAVCDockManager@@@Z @ 195 NONAME
	 ??0CMDIClientValidator@@QAE@XZ @ 196 NONAME
	 ??0CMenuBtn@@QAE@XZ @ 197 NONAME
	 ??0CMessageBox@@QAE@PBD00GPAKPAVCWnd@@@Z @ 198 NONAME
	 ??0CMiniOleDispatchDriver@@QAE@XZ @ 199 NONAME
	 ??0CMultiSlob@@QAE@XZ @ 200 NONAME
	 ??0CNewBarDialog@@QAE@PAVCWnd@@@Z @ 201 NONAME
	 ??0CNewFileDialogTab@@QAE@HH@Z @ 202 NONAME
	 ??0CNewOtherDocDialogTab@@QAE@HH@Z @ 203 NONAME
	 ??0CNewProjectDialogTab@@QAE@HH@Z @ 204 NONAME
	 ??0CNewTemplateDialogTab@@QAE@HH@Z @ 205 NONAME
	 ??0CNewWorkspaceDialogTab@@QAE@H@Z @ 206 NONAME
	 ??0CNode@@QAE@K@Z @ 207 NONAME
	 ??0COldStatusBar@@QAE@XZ @ 208 NONAME
	 ??0COldToolBar@@QAE@XZ @ 209 NONAME
	 ??0COleAllPage@@QAE@XZ @ 210 NONAME
	 ??0COlePage@@IAE@ABU_GUID@@@Z @ 211 NONAME
	 ??0COleParentUndoUnit@@QAE@W4UNDOACTIONTYPE@@PAG@Z @ 212 NONAME
	 ??0COLEStorage@@QAE@H@Z @ 213 NONAME
	 ??0COleTrackSelection@@QAE@PAVCIPCompSlob@@@Z @ 214 NONAME
	 ??0COleUndoManager@@QAE@XZ @ 215 NONAME
	 ??0COleUndoUnit@@QAE@PAGHH@Z @ 216 NONAME
	 ??0COpenDocsDlg@@QAE@PAVCWnd@@@Z @ 217 NONAME
	 ??0COptDlg@@QAE@IW4OPTDLG_TYPE@@IW4DLGPOSITION@CTabbedDialog@@@Z @ 218 NONAME
	 ??0CPack@@QAE@PAVCPackage@@IPBD@Z @ 219 NONAME
	 ??0CPackage@@QAE@PAUHINSTANCE__@@IIPBD111@Z @ 220 NONAME
	 ??0CPacket@@QAE@PAVCPackage@@IPBD1PAVCSushiBarInfo@@@Z @ 221 NONAME
	 ??0CPaletteWnd@@QAE@PAVCDockManager@@@Z @ 222 NONAME
	 ??0CPartDoc@@QAE@XZ @ 223 NONAME
	 ??0CPartFrame@@QAE@XZ @ 224 NONAME
	 ??0CPartTemplate@@QAE@IPAUCRuntimeClass@@00PAVCPackage@@PAVCPacket@@ABU_GUID@@PBD@Z @ 225 NONAME
	 ??0CPartView@@IAE@XZ @ 226 NONAME
	 ??0CPath@@QAE@ABV0@@Z @ 227 NONAME
	 ??0CPath@@QAE@XZ @ 228 NONAME
	 ??0CPathList@@QAE@H@Z @ 229 NONAME
	 ??0CPen@@QAE@XZ @ 230 NONAME
	 ??0CPickList@@QAE@XZ @ 231 NONAME
	 ??0CPoint@@QAE@UtagPOINT@@@Z @ 232 NONAME
	 ??0CProjSlob@@QAE@XZ @ 233 NONAME
	 ??0CProjTypeList@@QAE@XZ @ 234 NONAME
	 ??0CProjTypeListItem@@QAE@PBDPAUHICON__@@W4TYPE_ITEM_CLASS@@H@Z @ 235 NONAME
	 ??0CPropButton@@QAE@XZ @ 236 NONAME
	 ??0CPropEdit@@QAE@XZ @ 237 NONAME
	 ??0CPropFrameToolBar@@QAE@XZ @ 238 NONAME
	 ??0CPropItem@@QAE@PBDGW4DataType@@J@Z @ 239 NONAME
	 ??0CPropList@@QAE@XZ @ 240 NONAME
	 ??0CPropListBox@@QAE@XZ @ 241 NONAME
	 ??0CRect@@QAE@ABUtagRECT@@@Z @ 242 NONAME
	 ??0CRedoControl@@QAE@XZ @ 243 NONAME
	 ??0CRegExStack@@QAE@XZ @ 244 NONAME
	 ??0CRegistryKeyEnum@@QAE@PAUHKEY__@@PBD@Z @ 245 NONAME
	 ??0CRegLite@@QAE@XZ @ 246 NONAME
	 ??0CSharedPacket@@QAE@XZ @ 247 NONAME
	 ??0CSheetSlob@@QAE@XZ @ 248 NONAME
	 ??0CSheetWnd@@QAE@XZ @ 249 NONAME
	 ??0CShellAction@@QAE@W4ShellElement@@W4ActionCat@0@@Z @ 250 NONAME
	 ??0CShellAction@@QAE@W4ShellElement@@W4ActionCat@0@AAVCRecArg@@@Z @ 251 NONAME
	 ??0CShellAction@@QAE@W4ShellElement@@W4ActionCat@0@AAVCRecArg@@2@Z @ 252 NONAME
	 ??0CShellRecorder@@QAE@XZ @ 253 NONAME
	 ??0CSizeCombo@@QAE@XZ @ 254 NONAME
	 ??0CSlob@@QAE@XZ @ 255 NONAME
	 ??0CSlobPage@@QAE@XZ @ 256 NONAME
	 ??0CSlobSequence@@QAE@XZ @ 257 NONAME
	 ??0CSlobWnd@@QAE@XZ @ 258 NONAME
	 ??0CSplashScreen@@QAE@XZ @ 259 NONAME
	 ??0CStateSaver@@QAE@H@Z @ 260 NONAME
	 ??0CStringListEdit@@QAE@XZ @ 261 NONAME
	 ??0CStringListGlyphGridWnd@@QAE@JJI@Z @ 262 NONAME
	 ??0CStringListGridRow@@QAE@PAVCGridWnd@@@Z @ 263 NONAME
	 ??0CStringListGridWnd@@QAE@I@Z @ 264 NONAME
	 ??0CSushiBar@@QAE@XZ @ 265 NONAME
	 ??0CSushiBarInfo@@QAE@PBIHPAUtagSTATINFO@@H@Z @ 266 NONAME
	 ??0CTabbedDialog@@QAE@IPAVCWnd@@IW4COMMIT_MODEL@0@W4DLGPOSITION@0@@Z @ 267 NONAME
	 ??0CTabRecord@@QAE@PBDHHK@Z @ 268 NONAME
	 ??0CTabRow@@QAE@XZ @ 269 NONAME
	 ??0CTap@@QAE@XZ @ 270 NONAME
	 ??0CTaskAllocator@@QAE@AAV0@@Z @ 271 NONAME
	 ??0CTaskAllocator@@QAE@XZ @ 272 NONAME
	 ??0CTestUI@@QAE@XZ @ 273 NONAME
	 ??0CTheApp@@QAE@PAPBDH@Z @ 274 NONAME
	 ??0CTipCtrl@@QAE@XZ @ 275 NONAME
	 ??0CTipDlg@@QAE@AAVCTipManager@@PAVCWnd@@@Z @ 276 NONAME
	 ??0CTipFile@@QAE@PBD@Z @ 277 NONAME
	 ??0CToggleBitmapButton@@QAE@XZ @ 278 NONAME
	 ??0CTool@@QAE@XZ @ 279 NONAME
	 ??0CToolbarDialog@@QAE@PAVCDockManager@@PAVCWnd@@@Z @ 280 NONAME
	 ??0CToolbarEditCombo@@QAE@XZ @ 281 NONAME
	 ??0CToolCustomizer@@QAE@PAVCDockManager@@PAVCDlgTab@@ABVCObArray@@HH@Z @ 282 NONAME
	 ??0CToolGroup@@QAE@XZ @ 283 NONAME
	 ??0CToolList@@QAE@XZ @ 284 NONAME
	 ??0CToolsGrid@@QAE@XZ @ 285 NONAME
	 ??0CTreeCtl@@QAE@HH@Z @ 286 NONAME
	 ??0CTreeListBox@@QAE@XZ @ 287 NONAME
	 ??0CTreeLite@@QAE@XZ @ 288 NONAME
	 ??0CTTBitmap@@QAE@XZ @ 289 NONAME
	 ??0CTypedRecentFileList@@QAE@IPBD00HHH@Z @ 290 NONAME
	 ??0CUndoControl@@QAE@XZ @ 291 NONAME
	 ??0CUndoList@@QAE@XZ @ 292 NONAME
	 ??0CUndoSlob@@QAE@XZ @ 293 NONAME
	 ??0CUndoStack@@QAE@XZ @ 294 NONAME
	 ??0CVshellPackage@@QAE@XZ @ 295 NONAME
	 ??0CWidgetScrollBar@@QAE@H@Z @ 296 NONAME
	 ??0CWindowList@@QAE@XZ @ 297 NONAME
	 ??0CWinList@@QAE@I@Z @ 298 NONAME
	 ??0CWorkspaceDlg@@QAE@PAVCDockManager@@PAVCWnd@@@Z @ 299 NONAME
	 ??0FCItem@@QAE@XZ @ 300 NONAME
	 ??0FINDREPLACEDISK@@QAE@XZ @ 301 NONAME
	 ??0GLOBAL_DATA@@QAE@XZ @ 302 NONAME
	 ??0TBBUTTON_EXTRA@@QAE@XZ @ 303 NONAME
	 ??0TRANSFER_TBBUTTON@@QAE@H@Z @ 304 NONAME
	 ??0TRANSFER_TBBUTTON@@QAE@HPAUHBITMAP__@@H@Z @ 305 NONAME
	 ??0TRANSFER_TBBUTTON@@QAE@HPAUHBITMAP__@@HH@Z @ 306 NONAME
	 ??0TRANSFER_TBBUTTON@@QAE@HPAVCString@@H@Z @ 307 NONAME
	 ??0TRANSFER_TBBUTTON@@QAE@HPAVCString@@PAUHBITMAP__@@HH@Z @ 308 NONAME
	 ??0TRANSFER_TBBUTTON@@QAE@PAVCToolBarProxy@@HH@Z @ 309 NONAME
	 ??0XApplicationCP@CApplication@@QAE@XZ @ 310 NONAME
	 ??0XDispApplicationCP@CApplication@@QAE@XZ @ 311 NONAME
	 ??1?$CMap@IIPAV?$CTypedPtrArray@VCObArray@@PAVCPack@@@@AAPAV1@@@UAE@XZ @ 312 NONAME
	 ??1?$CMap@IIPAVCBMenuPopup@@AAPAV1@@@UAE@XZ @ 313 NONAME
	 ??1?$COleMalloc@G@@QAE@XZ @ 314 NONAME
	 ??1?$COleMalloc@U_GUID@@@@QAE@XZ @ 315 NONAME
	 ??1?$COleRef@UIBindCtx@@@@QAE@XZ @ 316 NONAME
	 ??1?$COleRef@UIBuilderWizardManager@@@@QAE@XZ @ 317 NONAME
	 ??1?$COleRef@UIConnectionPoint@@@@QAE@XZ @ 318 NONAME
	 ??1?$COleRef@UIConnectionPointContainer@@@@QAE@XZ @ 319 NONAME
	 ??1?$COleRef@UIDispatch@@@@QAE@XZ @ 320 NONAME
	 ??1?$COleRef@UIEnumOleUndoUnits@@@@QAE@XZ @ 321 NONAME
	 ??1?$COleRef@UIErrorInfo@@@@QAE@XZ @ 322 NONAME
	 ??1?$COleRef@UIFont@@@@QAE@XZ @ 323 NONAME
	 ??1?$COleRef@UIGenericProject@@@@QAE@XZ @ 324 NONAME
	 ??1?$COleRef@UIInternalTrackSelection@@@@QAE@XZ @ 325 NONAME
	 ??1?$COleRef@UIMalloc@@@@QAE@XZ @ 326 NONAME
	 ??1?$COleRef@UIMoniker@@@@QAE@XZ @ 327 NONAME
	 ??1?$COleRef@UIMsoComponentManager@@@@QAE@XZ @ 328 NONAME
	 ??1?$COleRef@UIMsoStdComponentMgr@@@@QAE@XZ @ 329 NONAME
	 ??1?$COleRef@UIOleClientSite@@@@QAE@XZ @ 330 NONAME
	 ??1?$COleRef@UIOleCommandTarget@@@@QAE@XZ @ 331 NONAME
	 ??1?$COleRef@UIOleComponentUIManager@@@@QAE@XZ @ 332 NONAME
	 ??1?$COleRef@UIOleInPlaceComponent@@@@QAE@XZ @ 333 NONAME
	 ??1?$COleRef@UIOleInPlaceObject@@@@QAE@XZ @ 334 NONAME
	 ??1?$COleRef@UIOleObject@@@@QAE@XZ @ 335 NONAME
	 ??1?$COleRef@UIOleUndoManager@@@@QAE@XZ @ 336 NONAME
	 ??1?$COleRef@UIOleUndoUnit@@@@QAE@XZ @ 337 NONAME
	 ??1?$COleRef@UIPerPropertyBrowsing@@@@QAE@XZ @ 338 NONAME
	 ??1?$COleRef@UIPersist@@@@QAE@XZ @ 339 NONAME
	 ??1?$COleRef@UIPersistFile@@@@QAE@XZ @ 340 NONAME
	 ??1?$COleRef@UIPersistStorage@@@@QAE@XZ @ 341 NONAME
	 ??1?$COleRef@UIPicture@@@@QAE@XZ @ 342 NONAME
	 ??1?$COleRef@UIPkgProject@@@@QAE@XZ @ 343 NONAME
	 ??1?$COleRef@UIProjectWorkspace@@@@QAE@XZ @ 344 NONAME
	 ??1?$COleRef@UIProjectWorkspaceWindow@@@@QAE@XZ @ 345 NONAME
	 ??1?$COleRef@UIPropertyPageUndoString@@@@QAE@XZ @ 346 NONAME
	 ??1?$COleRef@UIProvideMultipleClassInfo@@@@QAE@XZ @ 347 NONAME
	 ??1?$COleRef@UIProvidePropertyBuilder@@@@QAE@XZ @ 348 NONAME
	 ??1?$COleRef@UIRootStorage@@@@QAE@XZ @ 349 NONAME
	 ??1?$COleRef@UISelectionContainer@@@@QAE@XZ @ 350 NONAME
	 ??1?$COleRef@UISourceControlStatus@@@@QAE@XZ @ 351 NONAME
	 ??1?$COleRef@UISpecifyPropertyPages@@@@QAE@XZ @ 352 NONAME
	 ??1?$COleRef@UIStorage@@@@QAE@XZ @ 353 NONAME
	 ??1?$COleRef@UIStream@@@@QAE@XZ @ 354 NONAME
	 ??1?$COleRef@UISupportErrorInfo@@@@QAE@XZ @ 355 NONAME
	 ??1?$COleRef@UITrackSelection@@@@QAE@XZ @ 356 NONAME
	 ??1?$COleRef@UITypeComp@@@@QAE@XZ @ 357 NONAME
	 ??1?$COleRef@UITypeInfo@@@@QAE@XZ @ 358 NONAME
	 ??1?$COleRef@UITypeInfo2@@@@QAE@XZ @ 359 NONAME
	 ??1?$COleRef@UITypeLib@@@@QAE@XZ @ 360 NONAME
	 ??1?$COleRef@UIUnknown@@@@QAE@XZ @ 361 NONAME
	 ??1?$COleRef@UIWebProject@@@@QAE@XZ @ 362 NONAME
	 ??1?$COleRef@VCOleUndoManager@@@@QAE@XZ @ 363 NONAME
	 ??1?$CQueue@VFCItem@@AAV1@@@QAE@XZ @ 364 NONAME
	 ??1?$CTypedPtrArray@VCObArray@@PAVCPack@@@@UAE@XZ @ 365 NONAME
	 ??1?$CTypedPtrArray@VCPtrArray@@PAVCBMenuItem@@@@UAE@XZ @ 366 NONAME
	 ??1?$CTypedPtrArray@VCPtrArray@@PAVCCmdGroup@@@@UAE@XZ @ 367 NONAME
	 ??1?$CTypedPtrList@VCObList@@PAVCBMenuPopup@@@@UAE@XZ @ 368 NONAME
	 ??1?$CTypedPtrList@VCPtrList@@PAUCAutomationItem@@@@UAE@XZ @ 369 NONAME
	 ??1?$CTypedPtrList@VCPtrList@@PAUIDispatch@@@@UAE@XZ @ 370 NONAME
	 ??1?$CTypedPtrList@VCPtrList@@PAUIOleUndoUnit@@@@UAE@XZ @ 371 NONAME
	 ??1?$CTypedPtrList@VCPtrList@@PAVCOleParentUndoUnit@@@@UAE@XZ @ 372 NONAME
	 ??1AFX_EXCEPTION_LINK@@QAE@XZ @ 373 NONAME
	 ??1AFX_MAINTAIN_STATE2@@QAE@XZ @ 374 NONAME
	 ??1C3dBitmapButton@@UAE@XZ @ 375 NONAME
	 ??1C3dDialog@@UAE@XZ @ 376 NONAME
	 ??1C3dDialogBar@@UAE@XZ @ 377 NONAME
	 ??1C3dDialogTemplate@@QAE@XZ @ 378 NONAME
	 ??1C3dFileDialog@@UAE@XZ @ 379 NONAME
	 ??1C3dFontDialog@@UAE@XZ @ 380 NONAME
	 ??1C3dPropertyPage@@UAE@XZ @ 381 NONAME
	 ??1CAboutDlg@@UAE@XZ @ 382 NONAME
	 ??1CAddFilesDialog@@UAE@XZ @ 383 NONAME
	 ??1CAddOn@@UAE@XZ @ 384 NONAME
	 ??1CApplication@@MAE@XZ @ 385 NONAME
	 ??1CApplicationFactory@@UAE@XZ @ 386 NONAME
	 ??1CAppSlob@@UAE@XZ @ 387 NONAME
	 ??1CAppToolGroups@@QAE@XZ @ 388 NONAME
	 ??1CASBar@@UAE@XZ @ 389 NONAME
	 ??1CAutoCollection@@MAE@XZ @ 390 NONAME
	 ??1CAutoDocumentDefault@@UAE@XZ @ 391 NONAME
	 ??1CAutoDocuments@@UAE@XZ @ 392 NONAME
	 ??1CAutoObj@@MAE@XZ @ 393 NONAME
	 ??1CAutoProjects@@MAE@XZ @ 394 NONAME
	 ??1CAutosave@@QAE@XZ @ 395 NONAME
	 ??1CAutoUIDisableRestore@@QAE@XZ @ 396 NONAME
	 ??1CAutoWindowDefault@@UAE@XZ @ 397 NONAME
	 ??1CAutoWindowObj@@MAE@XZ @ 398 NONAME
	 ??1CAutoWindows@@MAE@XZ @ 399 NONAME
	 ??1CBContextPopupMenu@@UAE@XZ @ 400 NONAME
	 ??1CBitmap@@UAE@XZ @ 401 NONAME
	 ??1CBitmapButton@@UAE@XZ @ 402 NONAME
	 ??1CBitmapWnd@@UAE@XZ @ 403 NONAME
	 ??1CBldWizSelectDlg@@UAE@XZ @ 404 NONAME
	 ??1CBMenuItem@@UAE@XZ @ 405 NONAME
	 ??1CBMenuPopup@@UAE@XZ @ 406 NONAME
	 ??1CBorderBar@@UAE@XZ @ 407 NONAME
	 ??1CBRecentFileList@@UAE@XZ @ 408 NONAME
	 ??1CBrush@@UAE@XZ @ 409 NONAME
	 ??1CBuilderWizardManager@@UAE@XZ @ 410 NONAME
	 ??1CButtonDragListBox@@UAE@XZ @ 411 NONAME
	 ??1CButtonEdit@@UAE@XZ @ 412 NONAME
	 ??1CCheckList@@UAE@XZ @ 413 NONAME
	 ??1CChoiceBar@@UAE@XZ @ 414 NONAME
	 ??1CClipboardSlob@@UAE@XZ @ 415 NONAME
	 ??1CCmd@@UAE@XZ @ 416 NONAME
	 ??1CCmdCache@@QAE@XZ @ 417 NONAME
	 ??1CCmdGroup@@UAE@XZ @ 418 NONAME
	 ??1CCmdGroupSeparator@@UAE@XZ @ 419 NONAME
	 ??1CCmdMenu@@UAE@XZ @ 420 NONAME
	 ??1CCmdObject@@UAE@XZ @ 421 NONAME
	 ??1CColorCombo@@UAE@XZ @ 422 NONAME
	 ??1CColorDialog@@UAE@XZ @ 423 NONAME
	 ??1CCommandTab@@UAE@XZ @ 424 NONAME
	 ??1CCommonDialog@@UAE@XZ @ 425 NONAME
	 ??1CConsoleSpawner@@QAE@XZ @ 426 NONAME
	 ??1CContextPopupMenu@@UAE@XZ @ 427 NONAME
	 ??1CCPLReg@@QAE@XZ @ 428 NONAME
	 ??1CCurDir@@UAE@XZ @ 429 NONAME
	 ??1CCustomBar@@UAE@XZ @ 430 NONAME
	 ??1CCustomButtonDlg@@UAE@XZ @ 431 NONAME
	 ??1CCustomDialog@@UAE@XZ @ 432 NONAME
	 ??1CCustomizeToolsDialog@@UAE@XZ @ 433 NONAME
	 ??1CDefProvidedNode@@UAE@XZ @ 434 NONAME
	 ??1CDialogArg@@UAE@XZ @ 435 NONAME
	 ??1CDir@@UAE@XZ @ 436 NONAME
	 ??1CDirChooser@@QAE@XZ @ 437 NONAME
	 ??1CDirList@@UAE@XZ @ 438 NONAME
	 ??1CDlgTab@@UAE@XZ @ 439 NONAME
	 ??1CDllApi@@QAE@XZ @ 440 NONAME
	 ??1CDockablePartView@@MAE@XZ @ 441 NONAME
	 ??1CDockCombo@@UAE@XZ @ 442 NONAME
	 ??1CDockComboEdit@@UAE@XZ @ 443 NONAME
	 ??1CDockManager@@UAE@XZ @ 444 NONAME
	 ??1CDockWnd@@UAE@XZ @ 445 NONAME
	 ??1CDockWorker@@UAE@XZ @ 446 NONAME
	 ??1CDocObjectContainerItem@@UAE@XZ @ 447 NONAME
	 ??1CDocObjectDoc@@UAE@XZ @ 448 NONAME
	 ??1CDocObjectFrame@@UAE@XZ @ 449 NONAME
	 ??1CDocObjectFrameHook@@UAE@XZ @ 450 NONAME
	 ??1CDocObjectTemplate@@UAE@XZ @ 451 NONAME
	 ??1CDocObjectView@@UAE@XZ @ 452 NONAME
	 ??1CDragNDrop@@UAE@XZ @ 453 NONAME
	 ??1CDropControl@@UAE@XZ @ 454 NONAME
	 ??1CElList@@QAE@XZ @ 455 NONAME
	 ??1CEnumData@@QAE@XZ @ 456 NONAME
	 ??1CEnumOleUndoUnit@@QAE@XZ @ 457 NONAME
	 ??1CEnumVariantObjs@@MAE@XZ @ 458 NONAME
	 ??1CErrorContext@@UAE@XZ @ 459 NONAME
	 ??1CException@@UAE@XZ @ 460 NONAME
	 ??1CFCDialogState@@QAE@XZ @ 461 NONAME
	 ??1CFileChange@@QAE@XZ @ 462 NONAME
	 ??1CFileData@@QAE@XZ @ 463 NONAME
	 ??1CFileDialog@@UAE@XZ @ 464 NONAME
	 ??1CFileException@@UAE@XZ @ 465 NONAME
	 ??1CFileNewTabbedDialog@@UAE@XZ @ 466 NONAME
	 ??1CFileNewWizardTemplate@@UAE@XZ @ 467 NONAME
	 ??1CFileOpenReturn@@UAE@XZ @ 468 NONAME
	 ??1CFileSaver@@QAE@XZ @ 469 NONAME
	 ??1CFindCombo@@UAE@XZ @ 470 NONAME
	 ??1CFindStringDlg@@UAE@XZ @ 471 NONAME
	 ??1CFloatingFrameBar@@UAE@XZ @ 472 NONAME
	 ??1CFloatingFrameWnd@@UAE@XZ @ 473 NONAME
	 ??1CFont@@UAE@XZ @ 474 NONAME
	 ??1CFontColorDlg@@UAE@XZ @ 475 NONAME
	 ??1CFontNameCombo@@UAE@XZ @ 476 NONAME
	 ??1CFormatInfo@@UAE@XZ @ 477 NONAME
	 ??1CFullScreenState@@UAE@XZ @ 478 NONAME
	 ??1CGdiObject@@UAE@XZ @ 479 NONAME
	 ??1CGhostListBox@@UAE@XZ @ 480 NONAME
	 ??1CGoToDialog@@UAE@XZ @ 481 NONAME
	 ??1CGridCaption@@UAE@XZ @ 482 NONAME
	 ??1CGridCaptionCell@@UAE@XZ @ 483 NONAME
	 ??1CGridCell@@UAE@XZ @ 484 NONAME
	 ??1CGridCellRow@@UAE@XZ @ 485 NONAME
	 ??1CGridControlRow@@UAE@XZ @ 486 NONAME
	 ??1CGridControlWnd@@UAE@XZ @ 487 NONAME
	 ??1CGridElement@@UAE@XZ @ 488 NONAME
	 ??1CGridRow@@UAE@XZ @ 489 NONAME
	 ??1CGridToolBar@@UAE@XZ @ 490 NONAME
	 ??1CGridWnd@@UAE@XZ @ 491 NONAME
	 ??1CHaltRecording@@QAE@XZ @ 492 NONAME
	 ??1CHelpKeyGrid@@UAE@XZ @ 493 NONAME
	 ??1CHelpKeyGridRow@@UAE@XZ @ 494 NONAME
	 ??1CHelpKeyWnd@@UAE@XZ @ 495 NONAME
	 ??1CIdeInterface@@QAE@XZ @ 496 NONAME
	 ??1CIdisFileDialog@@UAE@XZ @ 497 NONAME
	 ??1CImageWell@@QAE@XZ @ 498 NONAME
	 ??1CIME@@QAE@XZ @ 499 NONAME
	 ??1CInitFile@@UAE@XZ @ 500 NONAME
	 ??1CInternalApp@@UAE@XZ @ 501 NONAME
	 ??1CInternalTrackSelection@@UAE@XZ @ 502 NONAME
	 ??1CIPCompBuilderWizardManager@@UAE@XZ @ 503 NONAME
	 ??1CIPCompContainerItem@@UAE@XZ @ 504 NONAME
	 ??1CIPCompDoc@@UAE@XZ @ 505 NONAME
	 ??1CIPCompDocTemplate@@UAE@XZ @ 506 NONAME
	 ??1CIPCompFrameHook@@UAE@XZ @ 507 NONAME
	 ??1CIPCompHostApp@@UAE@XZ @ 508 NONAME
	 ??1CIPCompMainFrame@@UAE@XZ @ 509 NONAME
	 ??1CIPCompMessageFilter@@UAE@XZ @ 510 NONAME
	 ??1CIPCompSlob@@UAE@XZ @ 511 NONAME
	 ??1CIPCompView@@UAE@XZ @ 512 NONAME
	 ??1CJit@@QAE@XZ @ 513 NONAME
	 ??1CKeyCustDlg@@UAE@XZ @ 514 NONAME
	 ??1CKeyListBox@@UAE@XZ @ 515 NONAME
	 ??1CKeymap@@UAE@XZ @ 516 NONAME
	 ??1CLastTabMap@@UAE@XZ @ 517 NONAME
	 ??1CLockDC@@UAE@XZ @ 518 NONAME
	 ??1CMainFrame@@UAE@XZ @ 519 NONAME
	 ??1CMainGroup@@UAE@XZ @ 520 NONAME
	 ??1CMapDirToOb@@UAE@XZ @ 521 NONAME
	 ??1CMapPathToOb@@UAE@XZ @ 522 NONAME
	 ??1CMDIChildDock@@UAE@XZ @ 523 NONAME
	 ??1CMDIChildWnd@@UAE@XZ @ 524 NONAME
	 ??1CMDIClientValidator@@UAE@XZ @ 525 NONAME
	 ??1CMDIFrameWnd@@UAE@XZ @ 526 NONAME
	 ??1CMenu@@UAE@XZ @ 527 NONAME
	 ??1CMenuBtn@@UAE@XZ @ 528 NONAME
	 ??1CMenuPopupProxy@@QAE@XZ @ 529 NONAME
	 ??1CMessageBox@@UAE@XZ @ 530 NONAME
	 ??1CMultiSlob@@UAE@XZ @ 531 NONAME
	 ??1CNewBarDialog@@UAE@XZ @ 532 NONAME
	 ??1CNewFileDialogTab@@UAE@XZ @ 533 NONAME
	 ??1CNewOtherDocDialogTab@@UAE@XZ @ 534 NONAME
	 ??1CNewProjectDialogTab@@UAE@XZ @ 535 NONAME
	 ??1CNewTemplateDialogTab@@UAE@XZ @ 536 NONAME
	 ??1CNewWorkspaceDialogTab@@UAE@XZ @ 537 NONAME
	 ??1CNode@@UAE@XZ @ 538 NONAME
	 ??1CObject@@UAE@XZ @ 539 NONAME
	 ??1COldStatusBar@@UAE@XZ @ 540 NONAME
	 ??1COldToolBar@@UAE@XZ @ 541 NONAME
	 ??1COleAllPage@@UAE@XZ @ 542 NONAME
	 ??1COleDispatchDriver@@QAE@XZ @ 543 NONAME
	 ??1COlePage@@MAE@XZ @ 544 NONAME
	 ??1COleParentUndoUnit@@QAE@XZ @ 545 NONAME
	 ??1COLEStorage@@UAE@XZ @ 546 NONAME
	 ??1COleStrPtr@@QAE@XZ @ 547 NONAME
	 ??1COleTrackSelection@@UAE@XZ @ 548 NONAME
	 ??1COleUndoManager@@QAE@XZ @ 549 NONAME
	 ??1COleUndoUnit@@QAE@XZ @ 550 NONAME
	 ??1COleVariant@@QAE@XZ @ 551 NONAME
	 ??1COpenDocsDlg@@UAE@XZ @ 552 NONAME
	 ??1COptDlg@@UAE@XZ @ 553 NONAME
	 ??1CPack@@UAE@XZ @ 554 NONAME
	 ??1CPackage@@UAE@XZ @ 555 NONAME
	 ??1CPacket@@UAE@XZ @ 556 NONAME
	 ??1CPalette@@UAE@XZ @ 557 NONAME
	 ??1CPaletteWnd@@UAE@XZ @ 558 NONAME
	 ??1CPartDoc@@UAE@XZ @ 559 NONAME
	 ??1CPartFrame@@UAE@XZ @ 560 NONAME
	 ??1CPartTemplate@@UAE@XZ @ 561 NONAME
	 ??1CPartView@@UAE@XZ @ 562 NONAME
	 ??1CPath@@UAE@XZ @ 563 NONAME
	 ??1CPathList@@UAE@XZ @ 564 NONAME
	 ??1CPen@@UAE@XZ @ 565 NONAME
	 ??1CPickList@@QAE@XZ @ 566 NONAME
	 ??1CPrintDialog@@UAE@XZ @ 567 NONAME
	 ??1CProjSlob@@UAE@XZ @ 568 NONAME
	 ??1CProjTypeItem@@QAE@XZ @ 569 NONAME
	 ??1CProjTypeList@@QAE@XZ @ 570 NONAME
	 ??1CProjTypeListItem@@QAE@XZ @ 571 NONAME
	 ??1CPropButton@@UAE@XZ @ 572 NONAME
	 ??1CPropEdit@@UAE@XZ @ 573 NONAME
	 ??1CPropFrameToolBar@@UAE@XZ @ 574 NONAME
	 ??1CPropItem@@QAE@XZ @ 575 NONAME
	 ??1CPropList@@UAE@XZ @ 576 NONAME
	 ??1CPropListBox@@UAE@XZ @ 577 NONAME
	 ??1CRedoControl@@UAE@XZ @ 578 NONAME
	 ??1CRegExStack@@QAE@XZ @ 579 NONAME
	 ??1CRegistryKeyEnum@@QAE@XZ @ 580 NONAME
	 ??1CRegKey@ATL@@QAE@XZ @ 581 NONAME
	 ??1CRegLite@@QAE@XZ @ 582 NONAME
	 ??1CritSection@@QAE@XZ @ 583 NONAME
	 ??1CSafeMapStringToOb@@UAE@XZ @ 584 NONAME
	 ??1CSafePFileDataList@@UAE@XZ @ 585 NONAME
	 ??1CSection@@QAE@XZ @ 586 NONAME
	 ??1CSharedPacket@@UAE@XZ @ 587 NONAME
	 ??1CSheetSlob@@UAE@XZ @ 588 NONAME
	 ??1CSheetWnd@@UAE@XZ @ 589 NONAME
	 ??1CShellAction@@QAE@XZ @ 590 NONAME
	 ??1CShellConstArg@@UAE@XZ @ 591 NONAME
	 ??1CShellRecorder@@UAE@XZ @ 592 NONAME
	 ??1CSizeCombo@@UAE@XZ @ 593 NONAME
	 ??1CSlob@@UAE@XZ @ 594 NONAME
	 ??1CSlobPage@@UAE@XZ @ 595 NONAME
	 ??1CSlobSequence@@UAE@XZ @ 596 NONAME
	 ??1CSlobWnd@@UAE@XZ @ 597 NONAME
	 ??1CSplashScreen@@UAE@XZ @ 598 NONAME
	 ??1CStateSaver@@QAE@XZ @ 599 NONAME
	 ??1CStaticVCenter@@UAE@XZ @ 600 NONAME
	 ??1CStringListEdit@@UAE@XZ @ 601 NONAME
	 ??1CStringListGlyphGridWnd@@UAE@XZ @ 602 NONAME
	 ??1CStringListGridRow@@UAE@XZ @ 603 NONAME
	 ??1CStringListGridWnd@@UAE@XZ @ 604 NONAME
	 ??1CStringProp@@QAE@XZ @ 605 NONAME
	 ??1CSushiBar@@UAE@XZ @ 606 NONAME
	 ??1CSushiBarInfo@@UAE@XZ @ 607 NONAME
	 ??1CTabbedDialog@@UAE@XZ @ 608 NONAME
	 ??1CTabRecord@@UAE@XZ @ 609 NONAME
	 ??1CTabRow@@UAE@XZ @ 610 NONAME
	 ??1CTap@@UAE@XZ @ 611 NONAME
	 ??1CTaskAllocator@@QAE@XZ @ 612 NONAME
	 ??1CTheApp@@UAE@XZ @ 613 NONAME
	 ??1CTipCtrl@@UAE@XZ @ 614 NONAME
	 ??1CTipDlg@@UAE@XZ @ 615 NONAME
	 ??1CTipFile@@QAE@XZ @ 616 NONAME
	 ??1CTipFileManager@@QAE@XZ @ 617 NONAME
	 ??1CTipFileQueue@@QAE@XZ @ 618 NONAME
	 ??1CToggleBitmapButton@@UAE@XZ @ 619 NONAME
	 ??1CTool@@UAE@XZ @ 620 NONAME
	 ??1CToolbarCheckList@@UAE@XZ @ 621 NONAME
	 ??1CToolbarDialog@@UAE@XZ @ 622 NONAME
	 ??1CToolbarEditCombo@@UAE@XZ @ 623 NONAME
	 ??1CToolbarEditComboEdit@@UAE@XZ @ 624 NONAME
	 ??1CToolCustomizer@@UAE@XZ @ 625 NONAME
	 ??1CToolGroup@@QAE@XZ @ 626 NONAME
	 ??1CToolList@@UAE@XZ @ 627 NONAME
	 ??1CToolsGrid@@UAE@XZ @ 628 NONAME
	 ??1CTreeCtl@@UAE@XZ @ 629 NONAME
	 ??1CTreeListBox@@UAE@XZ @ 630 NONAME
	 ??1CTreeLite@@QAE@XZ @ 631 NONAME
	 ??1CTTBitmap@@UAE@XZ @ 632 NONAME
	 ??1CTypedRecentFileList@@UAE@XZ @ 633 NONAME
	 ??1CUndoControl@@UAE@XZ @ 634 NONAME
	 ??1CUndoList@@UAE@XZ @ 635 NONAME
	 ??1CUndoSlob@@UAE@XZ @ 636 NONAME
	 ??1CUndoStack@@QAE@XZ @ 637 NONAME
	 ??1CVshellPackage@@UAE@XZ @ 638 NONAME
	 ??1CW32Event@@QAE@XZ @ 639 NONAME
	 ??1CWaitCursor@@QAE@XZ @ 640 NONAME
	 ??1CWidgetScrollBar@@UAE@XZ @ 641 NONAME
	 ??1CWidgetTab@CWidgetScrollBar@@QAE@XZ @ 642 NONAME
	 ??1CWindowList@@UAE@XZ @ 643 NONAME
	 ??1CWinList@@QAE@XZ @ 644 NONAME
	 ??1CWorkspaceCheckList@@UAE@XZ @ 645 NONAME
	 ??1CWorkspaceDlg@@UAE@XZ @ 646 NONAME
	 ??1FCItem@@QAE@XZ @ 647 NONAME
	 ??1FINDREPLACEDISK@@QAE@XZ @ 648 NONAME
	 ??1GLOBAL_DATA@@QAE@XZ @ 649 NONAME
	 ??1TBBUTTON_EXTRA@@QAE@XZ @ 650 NONAME
	 ??1TRANSFER_TBBUTTON@@QAE@XZ @ 651 NONAME
	 ??1XApplicationCP@CApplication@@UAE@XZ @ 652 NONAME
	 ??1XDispApplicationCP@CApplication@@UAE@XZ @ 653 NONAME
	 ??3CObject@@SGXPAX@Z @ 654 NONAME
	 ??4CFormatInfo@@QAEABV0@ABUFMT_WINGROUP@@@Z @ 655 NONAME
	 ??4CFormatInfo@@QAEABV0@ABV0@@Z @ 656 NONAME
	 ??4CTool@@QAEABV0@ABV0@@Z @ 657 NONAME
	 ??4CToolList@@QAEAAV0@AAV0@@Z @ 658 NONAME
	 ??4FCItem@@QAEAAV0@ABV0@@Z @ 659 NONAME
	 ??5@YGAAVCArchive@@AAV0@AAPAVCDockManager@@@Z @ 660 NONAME
	 ??5@YGAAVCArchive@@AAV0@AAPAVCDockWnd@@@Z @ 661 NONAME
	 ??5@YGAAVCArchive@@AAV0@AAPAVCDockWorker@@@Z @ 662 NONAME
	 ??5@YGAAVCArchive@@AAV0@AAPAVCDocObjectContainerItem@@@Z @ 663 NONAME
	 ??5@YGAAVCArchive@@AAV0@AAPAVCIPCompContainerItem@@@Z @ 664 NONAME
	 ??5@YGAAVCArchive@@AAV0@AAPAVCSlob@@@Z @ 665 NONAME
	 ??5CArchive@@QAEAAV0@AAG@Z @ 666 NONAME
	 ??5CArchive@@QAEAAV0@AAJ@Z @ 667 NONAME
	 ??5CArchive@@QAEAAV0@AAK@Z @ 668 NONAME
	 ??5CArchive@@QAEAAV0@AAN@Z @ 669 NONAME
	 ??5CFullScreenState@@QAEABV0@PAE@Z @ 670 NONAME
	 ??6CArchive@@QAEAAV0@G@Z @ 671 NONAME
	 ??6CArchive@@QAEAAV0@J@Z @ 672 NONAME
	 ??6CArchive@@QAEAAV0@K@Z @ 673 NONAME
	 ??6CArchive@@QAEAAV0@N@Z @ 674 NONAME
	 ??6CFullScreenState@@QAEABV0@PAE@Z @ 675 NONAME
	 ??8CDir@@QBEHABV0@@Z @ 676 NONAME
	 ??8CPath@@QBEHABV0@@Z @ 677 NONAME
	 ??A?$CMap@IIPAV?$CTypedPtrArray@VCObArray@@PAVCPack@@@@AAPAV1@@@QAEAAPAV?$CTypedPtrArray@VCObArray@@PAVCPack@@@@I@Z @ 678 NONAME
	 ??A?$CMap@IIPAVCBMenuPopup@@AAPAV1@@@QAEAAPAVCBMenuPopup@@I@Z @ 679 NONAME
	 ??ACMapDirToOb@@QAEAAPAVCObject@@ABVCDir@@@Z @ 680 NONAME
	 ??ACMapPathToOb@@QAEAAPAVCObject@@ABVCPath@@@Z @ 681 NONAME
	 ??ACTipFileQueue@@QAEPAVCTipFile@@H@Z @ 682 NONAME
	 ??YCFormatInfo@@QAEABV0@ABUFMT_WINGROUP@@@Z @ 683 NONAME
	 ?_AfxGetHelpDir@@YA?AVCString@@ABV1@@Z @ 684 NONAME
	 ?_GetBaseClass@C3dDialogBar@@KGPAUCRuntimeClass@@XZ @ 685 NONAME
	 ?_GetBaseClass@C3dPropertyPage@@KGPAUCRuntimeClass@@XZ @ 686 NONAME
	 ?_GetBaseClass@CApplication@@KGPAUCRuntimeClass@@XZ @ 687 NONAME
	 ?_GetBaseClass@CASBar@@KGPAUCRuntimeClass@@XZ @ 688 NONAME
	 ?_GetBaseClass@CAutoCollection@@KGPAUCRuntimeClass@@XZ @ 689 NONAME
	 ?_GetBaseClass@CAutoDocumentDefault@@KGPAUCRuntimeClass@@XZ @ 690 NONAME
	 ?_GetBaseClass@CAutoDocuments@@KGPAUCRuntimeClass@@XZ @ 691 NONAME
	 ?_GetBaseClass@CAutoObj@@KGPAUCRuntimeClass@@XZ @ 692 NONAME
	 ?_GetBaseClass@CAutoProjects@@KGPAUCRuntimeClass@@XZ @ 693 NONAME
	 ?_GetBaseClass@CAutoWindowDefault@@KGPAUCRuntimeClass@@XZ @ 694 NONAME
	 ?_GetBaseClass@CAutoWindowObj@@KGPAUCRuntimeClass@@XZ @ 695 NONAME
	 ?_GetBaseClass@CAutoWindows@@KGPAUCRuntimeClass@@XZ @ 696 NONAME
	 ?_GetBaseClass@CBMenuPopup@@KGPAUCRuntimeClass@@XZ @ 697 NONAME
	 ?_GetBaseClass@CBorderBar@@KGPAUCRuntimeClass@@XZ @ 698 NONAME
	 ?_GetBaseClass@CBuilderWizardManager@@KGPAUCRuntimeClass@@XZ @ 699 NONAME
	 ?_GetBaseClass@CButtonDragListBox@@KGPAUCRuntimeClass@@XZ @ 700 NONAME
	 ?_GetBaseClass@CChoiceBar@@KGPAUCRuntimeClass@@XZ @ 701 NONAME
	 ?_GetBaseClass@CClipboardSlob@@KGPAUCRuntimeClass@@XZ @ 702 NONAME
	 ?_GetBaseClass@CCommandTab@@KGPAUCRuntimeClass@@XZ @ 703 NONAME
	 ?_GetBaseClass@CCustomBar@@KGPAUCRuntimeClass@@XZ @ 704 NONAME
	 ?_GetBaseClass@CCustomDialog@@KGPAUCRuntimeClass@@XZ @ 705 NONAME
	 ?_GetBaseClass@CCustomizeToolsDialog@@KGPAUCRuntimeClass@@XZ @ 706 NONAME
	 ?_GetBaseClass@CDir@@KGPAUCRuntimeClass@@XZ @ 707 NONAME
	 ?_GetBaseClass@CDirList@@KGPAUCRuntimeClass@@XZ @ 708 NONAME
	 ?_GetBaseClass@CDlgTab@@KGPAUCRuntimeClass@@XZ @ 709 NONAME
	 ?_GetBaseClass@CDockablePartView@@KGPAUCRuntimeClass@@XZ @ 710 NONAME
	 ?_GetBaseClass@CDockManager@@KGPAUCRuntimeClass@@XZ @ 711 NONAME
	 ?_GetBaseClass@CDockWnd@@KGPAUCRuntimeClass@@XZ @ 712 NONAME
	 ?_GetBaseClass@CDockWorker@@KGPAUCRuntimeClass@@XZ @ 713 NONAME
	 ?_GetBaseClass@CDocObjectContainerItem@@KGPAUCRuntimeClass@@XZ @ 714 NONAME
	 ?_GetBaseClass@CDocObjectDoc@@KGPAUCRuntimeClass@@XZ @ 715 NONAME
	 ?_GetBaseClass@CDocObjectFrame@@KGPAUCRuntimeClass@@XZ @ 716 NONAME
	 ?_GetBaseClass@CDocObjectTemplate@@KGPAUCRuntimeClass@@XZ @ 717 NONAME
	 ?_GetBaseClass@CDocObjectView@@KGPAUCRuntimeClass@@XZ @ 718 NONAME
	 ?_GetBaseClass@CDropControl@@KGPAUCRuntimeClass@@XZ @ 719 NONAME
	 ?_GetBaseClass@CEnumVariantObjs@@KGPAUCRuntimeClass@@XZ @ 720 NONAME
	 ?_GetBaseClass@CErrorContext@@KGPAUCRuntimeClass@@XZ @ 721 NONAME
	 ?_GetBaseClass@CFileNewTabbedDialog@@KGPAUCRuntimeClass@@XZ @ 722 NONAME
	 ?_GetBaseClass@CFileNewWizardTemplate@@KGPAUCRuntimeClass@@XZ @ 723 NONAME
	 ?_GetBaseClass@CFindCombo@@KGPAUCRuntimeClass@@XZ @ 724 NONAME
	 ?_GetBaseClass@CFloatingFrameBar@@KGPAUCRuntimeClass@@XZ @ 725 NONAME
	 ?_GetBaseClass@CFloatingFrameWnd@@KGPAUCRuntimeClass@@XZ @ 726 NONAME
	 ?_GetBaseClass@CFontColorDlg@@KGPAUCRuntimeClass@@XZ @ 727 NONAME
	 ?_GetBaseClass@CFontNameCombo@@KGPAUCRuntimeClass@@XZ @ 728 NONAME
	 ?_GetBaseClass@CFormatInfo@@KGPAUCRuntimeClass@@XZ @ 729 NONAME
	 ?_GetBaseClass@CGhostListBox@@KGPAUCRuntimeClass@@XZ @ 730 NONAME
	 ?_GetBaseClass@CGoToDialog@@KGPAUCRuntimeClass@@XZ @ 731 NONAME
	 ?_GetBaseClass@CGridControlWnd@@KGPAUCRuntimeClass@@XZ @ 732 NONAME
	 ?_GetBaseClass@CGridWnd@@KGPAUCRuntimeClass@@XZ @ 733 NONAME
	 ?_GetBaseClass@CInitFile@@KGPAUCRuntimeClass@@XZ @ 734 NONAME
	 ?_GetBaseClass@CInternalTrackSelection@@KGPAUCRuntimeClass@@XZ @ 735 NONAME
	 ?_GetBaseClass@CIPCompBuilderWizardManager@@KGPAUCRuntimeClass@@XZ @ 736 NONAME
	 ?_GetBaseClass@CIPCompContainerItem@@KGPAUCRuntimeClass@@XZ @ 737 NONAME
	 ?_GetBaseClass@CIPCompDoc@@KGPAUCRuntimeClass@@XZ @ 738 NONAME
	 ?_GetBaseClass@CIPCompDocTemplate@@KGPAUCRuntimeClass@@XZ @ 739 NONAME
	 ?_GetBaseClass@CIPCompSlob@@KGPAUCRuntimeClass@@XZ @ 740 NONAME
	 ?_GetBaseClass@CIPCompView@@KGPAUCRuntimeClass@@XZ @ 741 NONAME
	 ?_GetBaseClass@CMainFrame@@KGPAUCRuntimeClass@@XZ @ 742 NONAME
	 ?_GetBaseClass@CMapDirToOb@@KGPAUCRuntimeClass@@XZ @ 743 NONAME
	 ?_GetBaseClass@CMapPathToOb@@KGPAUCRuntimeClass@@XZ @ 744 NONAME
	 ?_GetBaseClass@CMDIChildDock@@KGPAUCRuntimeClass@@XZ @ 745 NONAME
	 ?_GetBaseClass@CMultiSlob@@KGPAUCRuntimeClass@@XZ @ 746 NONAME
	 ?_GetBaseClass@CNewFileDialogTab@@KGPAUCRuntimeClass@@XZ @ 747 NONAME
	 ?_GetBaseClass@CNewOtherDocDialogTab@@KGPAUCRuntimeClass@@XZ @ 748 NONAME
	 ?_GetBaseClass@CNewProjectDialogTab@@KGPAUCRuntimeClass@@XZ @ 749 NONAME
	 ?_GetBaseClass@CNewTemplateDialogTab@@KGPAUCRuntimeClass@@XZ @ 750 NONAME
	 ?_GetBaseClass@CNewWorkspaceDialogTab@@KGPAUCRuntimeClass@@XZ @ 751 NONAME
	 ?_GetBaseClass@COldStatusBar@@KGPAUCRuntimeClass@@XZ @ 752 NONAME
	 ?_GetBaseClass@COldToolBar@@KGPAUCRuntimeClass@@XZ @ 753 NONAME
	 ?_GetBaseClass@COleAllPage@@KGPAUCRuntimeClass@@XZ @ 754 NONAME
	 ?_GetBaseClass@COlePage@@KGPAUCRuntimeClass@@XZ @ 755 NONAME
	 ?_GetBaseClass@COleTrackSelection@@KGPAUCRuntimeClass@@XZ @ 756 NONAME
	 ?_GetBaseClass@CPack@@KGPAUCRuntimeClass@@XZ @ 757 NONAME
	 ?_GetBaseClass@CPackage@@KGPAUCRuntimeClass@@XZ @ 758 NONAME
	 ?_GetBaseClass@CPaletteWnd@@KGPAUCRuntimeClass@@XZ @ 759 NONAME
	 ?_GetBaseClass@CPartDoc@@KGPAUCRuntimeClass@@XZ @ 760 NONAME
	 ?_GetBaseClass@CPartFrame@@KGPAUCRuntimeClass@@XZ @ 761 NONAME
	 ?_GetBaseClass@CPartTemplate@@KGPAUCRuntimeClass@@XZ @ 762 NONAME
	 ?_GetBaseClass@CPartView@@KGPAUCRuntimeClass@@XZ @ 763 NONAME
	 ?_GetBaseClass@CPath@@KGPAUCRuntimeClass@@XZ @ 764 NONAME
	 ?_GetBaseClass@CPathList@@KGPAUCRuntimeClass@@XZ @ 765 NONAME
	 ?_GetBaseClass@CProjSlob@@KGPAUCRuntimeClass@@XZ @ 766 NONAME
	 ?_GetBaseClass@CSheetSlob@@KGPAUCRuntimeClass@@XZ @ 767 NONAME
	 ?_GetBaseClass@CSlob@@KGPAUCRuntimeClass@@XZ @ 768 NONAME
	 ?_GetBaseClass@CSlobPage@@KGPAUCRuntimeClass@@XZ @ 769 NONAME
	 ?_GetBaseClass@CSlobWnd@@KGPAUCRuntimeClass@@XZ @ 770 NONAME
	 ?_GetBaseClass@CStorageEC@@KGPAUCRuntimeClass@@XZ @ 771 NONAME
	 ?_GetBaseClass@CSushiBar@@KGPAUCRuntimeClass@@XZ @ 772 NONAME
	 ?_GetBaseClass@CTabbedDialog@@KGPAUCRuntimeClass@@XZ @ 773 NONAME
	 ?_GetBaseClass@CToolbarDialog@@KGPAUCRuntimeClass@@XZ @ 774 NONAME
	 ?_GetBaseClass@CToolbarEditCombo@@KGPAUCRuntimeClass@@XZ @ 775 NONAME
	 ?_GetBaseClass@CToolbarEditComboEdit@@KGPAUCRuntimeClass@@XZ @ 776 NONAME
	 ?_GetBaseClass@CTreeCtl@@KGPAUCRuntimeClass@@XZ @ 777 NONAME
	 ?_GetBaseClass@CTreeListBox@@KGPAUCRuntimeClass@@XZ @ 778 NONAME
	 ?_GetBaseClass@CUndoSlob@@KGPAUCRuntimeClass@@XZ @ 779 NONAME
	 ?_GetBaseConnectionMap@CApplication@@KGPBUAFX_CONNECTIONMAP@@XZ @ 780 NONAME
	 ?_GetBaseDispatchMap@CApplication@@KGPBUAFX_DISPMAP@@XZ @ 781 NONAME
	 ?_GetBaseDispatchMap@CAutoCollection@@KGPBUAFX_DISPMAP@@XZ @ 782 NONAME
	 ?_GetBaseDispatchMap@CAutoDocumentDefault@@KGPBUAFX_DISPMAP@@XZ @ 783 NONAME
	 ?_GetBaseDispatchMap@CAutoDocuments@@KGPBUAFX_DISPMAP@@XZ @ 784 NONAME
	 ?_GetBaseDispatchMap@CAutoProjects@@KGPBUAFX_DISPMAP@@XZ @ 785 NONAME
	 ?_GetBaseDispatchMap@CAutoWindowDefault@@KGPBUAFX_DISPMAP@@XZ @ 786 NONAME
	 ?_GetBaseDispatchMap@CAutoWindows@@KGPBUAFX_DISPMAP@@XZ @ 787 NONAME
	 ?_GetBaseInterfaceMap@CApplication@@KGPBUAFX_INTERFACEMAP@@XZ @ 788 NONAME
	 ?_GetBaseInterfaceMap@CAutoCollection@@KGPBUAFX_INTERFACEMAP@@XZ @ 789 NONAME
	 ?_GetBaseInterfaceMap@CAutoDocumentDefault@@KGPBUAFX_INTERFACEMAP@@XZ @ 790 NONAME
	 ?_GetBaseInterfaceMap@CAutoDocuments@@KGPBUAFX_INTERFACEMAP@@XZ @ 791 NONAME
	 ?_GetBaseInterfaceMap@CAutoProjects@@KGPBUAFX_INTERFACEMAP@@XZ @ 792 NONAME
	 ?_GetBaseInterfaceMap@CAutoWindowDefault@@KGPBUAFX_INTERFACEMAP@@XZ @ 793 NONAME
	 ?_GetBaseInterfaceMap@CAutoWindows@@KGPBUAFX_INTERFACEMAP@@XZ @ 794 NONAME
	 ?_GetBaseInterfaceMap@CBuilderWizardManager@@KGPBUAFX_INTERFACEMAP@@XZ @ 795 NONAME
	 ?_GetBaseInterfaceMap@CDocObjectContainerItem@@KGPBUAFX_INTERFACEMAP@@XZ @ 796 NONAME
	 ?_GetBaseInterfaceMap@CDocObjectFrameHook@@KGPBUAFX_INTERFACEMAP@@XZ @ 797 NONAME
	 ?_GetBaseInterfaceMap@CEnumVariantObjs@@KGPBUAFX_INTERFACEMAP@@XZ @ 798 NONAME
	 ?_GetBaseInterfaceMap@CInternalTrackSelection@@KGPBUAFX_INTERFACEMAP@@XZ @ 799 NONAME
	 ?_GetBaseInterfaceMap@CIPCompBuilderWizardManager@@KGPBUAFX_INTERFACEMAP@@XZ @ 800 NONAME
	 ?_GetBaseInterfaceMap@CIPCompContainerItem@@KGPBUAFX_INTERFACEMAP@@XZ @ 801 NONAME
	 ?_GetBaseInterfaceMap@CIPCompFrameHook@@KGPBUAFX_INTERFACEMAP@@XZ @ 802 NONAME
	 ?_GetBaseInterfaceMap@CIPCompHostApp@@KGPBUAFX_INTERFACEMAP@@XZ @ 803 NONAME
	 ?_GetBaseInterfaceMap@CIPCompMainFrame@@KGPBUAFX_INTERFACEMAP@@XZ @ 804 NONAME
	 ?_GetBaseInterfaceMap@CIPCompMessageFilter@@KGPBUAFX_INTERFACEMAP@@XZ @ 805 NONAME
	 ?_GetBaseInterfaceMap@COleAllPage@@KGPBUAFX_INTERFACEMAP@@XZ @ 806 NONAME
	 ?_GetBaseInterfaceMap@COlePage@@KGPBUAFX_INTERFACEMAP@@XZ @ 807 NONAME
	 ?_GetBaseInterfaceMap@COleTrackSelection@@KGPBUAFX_INTERFACEMAP@@XZ @ 808 NONAME
	 ?_GetBaseInterfaceMap@CVshellPackage@@KGPBUAFX_INTERFACEMAP@@XZ @ 809 NONAME
	 ?_GetBaseMessageMap@C3dBitmapButton@@KGPBUAFX_MSGMAP@@XZ @ 810 NONAME
	 ?_GetBaseMessageMap@C3dDialog@@KGPBUAFX_MSGMAP@@XZ @ 811 NONAME
	 ?_GetBaseMessageMap@C3dDialogBar@@KGPBUAFX_MSGMAP@@XZ @ 812 NONAME
	 ?_GetBaseMessageMap@C3dFileDialog@@KGPBUAFX_MSGMAP@@XZ @ 813 NONAME
	 ?_GetBaseMessageMap@C3dFontDialog@@KGPBUAFX_MSGMAP@@XZ @ 814 NONAME
	 ?_GetBaseMessageMap@CAboutDlg@@KGPBUAFX_MSGMAP@@XZ @ 815 NONAME
	 ?_GetBaseMessageMap@CAddFilesDialog@@KGPBUAFX_MSGMAP@@XZ @ 816 NONAME
	 ?_GetBaseMessageMap@CApplication@@KGPBUAFX_MSGMAP@@XZ @ 817 NONAME
	 ?_GetBaseMessageMap@CASBar@@KGPBUAFX_MSGMAP@@XZ @ 818 NONAME
	 ?_GetBaseMessageMap@CAutoCollection@@KGPBUAFX_MSGMAP@@XZ @ 819 NONAME
	 ?_GetBaseMessageMap@CAutoDocumentDefault@@KGPBUAFX_MSGMAP@@XZ @ 820 NONAME
	 ?_GetBaseMessageMap@CAutoDocuments@@KGPBUAFX_MSGMAP@@XZ @ 821 NONAME
	 ?_GetBaseMessageMap@CAutoProjects@@KGPBUAFX_MSGMAP@@XZ @ 822 NONAME
	 ?_GetBaseMessageMap@CAutoWindowDefault@@KGPBUAFX_MSGMAP@@XZ @ 823 NONAME
	 ?_GetBaseMessageMap@CAutoWindows@@KGPBUAFX_MSGMAP@@XZ @ 824 NONAME
	 ?_GetBaseMessageMap@CBitmapWnd@@KGPBUAFX_MSGMAP@@XZ @ 825 NONAME
	 ?_GetBaseMessageMap@CBldWizSelectDlg@@KGPBUAFX_MSGMAP@@XZ @ 826 NONAME
	 ?_GetBaseMessageMap@CBMenuPopup@@KGPBUAFX_MSGMAP@@XZ @ 827 NONAME
	 ?_GetBaseMessageMap@CBorderBar@@KGPBUAFX_MSGMAP@@XZ @ 828 NONAME
	 ?_GetBaseMessageMap@CButtonDragListBox@@KGPBUAFX_MSGMAP@@XZ @ 829 NONAME
	 ?_GetBaseMessageMap@CButtonEdit@@KGPBUAFX_MSGMAP@@XZ @ 830 NONAME
	 ?_GetBaseMessageMap@CCheckList@@KGPBUAFX_MSGMAP@@XZ @ 831 NONAME
	 ?_GetBaseMessageMap@CColorCombo@@KGPBUAFX_MSGMAP@@XZ @ 832 NONAME
	 ?_GetBaseMessageMap@CCustomBar@@KGPBUAFX_MSGMAP@@XZ @ 833 NONAME
	 ?_GetBaseMessageMap@CCustomButtonDlg@@KGPBUAFX_MSGMAP@@XZ @ 834 NONAME
	 ?_GetBaseMessageMap@CCustomDialog@@KGPBUAFX_MSGMAP@@XZ @ 835 NONAME
	 ?_GetBaseMessageMap@CCustomizeToolsDialog@@KGPBUAFX_MSGMAP@@XZ @ 836 NONAME
	 ?_GetBaseMessageMap@CDialogArg@@KGPBUAFX_MSGMAP@@XZ @ 837 NONAME
	 ?_GetBaseMessageMap@CDlgTab@@KGPBUAFX_MSGMAP@@XZ @ 838 NONAME
	 ?_GetBaseMessageMap@CDockablePartView@@KGPBUAFX_MSGMAP@@XZ @ 839 NONAME
	 ?_GetBaseMessageMap@CDockWnd@@KGPBUAFX_MSGMAP@@XZ @ 840 NONAME
	 ?_GetBaseMessageMap@CDocObjectDoc@@KGPBUAFX_MSGMAP@@XZ @ 841 NONAME
	 ?_GetBaseMessageMap@CDocObjectFrame@@KGPBUAFX_MSGMAP@@XZ @ 842 NONAME
	 ?_GetBaseMessageMap@CDocObjectView@@KGPBUAFX_MSGMAP@@XZ @ 843 NONAME
	 ?_GetBaseMessageMap@CDropControl@@KGPBUAFX_MSGMAP@@XZ @ 844 NONAME
	 ?_GetBaseMessageMap@CEnumVariantObjs@@KGPBUAFX_MSGMAP@@XZ @ 845 NONAME
	 ?_GetBaseMessageMap@CFindCombo@@KGPBUAFX_MSGMAP@@XZ @ 846 NONAME
	 ?_GetBaseMessageMap@CFindStringDlg@@KGPBUAFX_MSGMAP@@XZ @ 847 NONAME
	 ?_GetBaseMessageMap@CFloatingFrameWnd@@KGPBUAFX_MSGMAP@@XZ @ 848 NONAME
	 ?_GetBaseMessageMap@CFontColorDlg@@KGPBUAFX_MSGMAP@@XZ @ 849 NONAME
	 ?_GetBaseMessageMap@CFontNameCombo@@KGPBUAFX_MSGMAP@@XZ @ 850 NONAME
	 ?_GetBaseMessageMap@CGhostListBox@@KGPBUAFX_MSGMAP@@XZ @ 851 NONAME
	 ?_GetBaseMessageMap@CGoToDialog@@KGPBUAFX_MSGMAP@@XZ @ 852 NONAME
	 ?_GetBaseMessageMap@CGridControlWnd@@KGPBUAFX_MSGMAP@@XZ @ 853 NONAME
	 ?_GetBaseMessageMap@CGridWnd@@KGPBUAFX_MSGMAP@@XZ @ 854 NONAME
	 ?_GetBaseMessageMap@CHelpKeyWnd@@KGPBUAFX_MSGMAP@@XZ @ 855 NONAME
	 ?_GetBaseMessageMap@CIdisFileDialog@@KGPBUAFX_MSGMAP@@XZ @ 856 NONAME
	 ?_GetBaseMessageMap@CIPCompDoc@@KGPBUAFX_MSGMAP@@XZ @ 857 NONAME
	 ?_GetBaseMessageMap@CIPCompView@@KGPBUAFX_MSGMAP@@XZ @ 858 NONAME
	 ?_GetBaseMessageMap@CKeyCustDlg@@KGPBUAFX_MSGMAP@@XZ @ 859 NONAME
	 ?_GetBaseMessageMap@CMainFrame@@KGPBUAFX_MSGMAP@@XZ @ 860 NONAME
	 ?_GetBaseMessageMap@CMDIChildDock@@KGPBUAFX_MSGMAP@@XZ @ 861 NONAME
	 ?_GetBaseMessageMap@CMDIClientValidator@@KGPBUAFX_MSGMAP@@XZ @ 862 NONAME
	 ?_GetBaseMessageMap@CMenuBtn@@KGPBUAFX_MSGMAP@@XZ @ 863 NONAME
	 ?_GetBaseMessageMap@CMessageBox@@KGPBUAFX_MSGMAP@@XZ @ 864 NONAME
	 ?_GetBaseMessageMap@CNewBarDialog@@KGPBUAFX_MSGMAP@@XZ @ 865 NONAME
	 ?_GetBaseMessageMap@CNewFileDialogTab@@KGPBUAFX_MSGMAP@@XZ @ 866 NONAME
	 ?_GetBaseMessageMap@CNewOtherDocDialogTab@@KGPBUAFX_MSGMAP@@XZ @ 867 NONAME
	 ?_GetBaseMessageMap@CNewProjectDialogTab@@KGPBUAFX_MSGMAP@@XZ @ 868 NONAME
	 ?_GetBaseMessageMap@CNewTemplateDialogTab@@KGPBUAFX_MSGMAP@@XZ @ 869 NONAME
	 ?_GetBaseMessageMap@CNewWorkspaceDialogTab@@KGPBUAFX_MSGMAP@@XZ @ 870 NONAME
	 ?_GetBaseMessageMap@COldStatusBar@@KGPBUAFX_MSGMAP@@XZ @ 871 NONAME
	 ?_GetBaseMessageMap@COldToolBar@@KGPBUAFX_MSGMAP@@XZ @ 872 NONAME
	 ?_GetBaseMessageMap@COleAllPage@@KGPBUAFX_MSGMAP@@XZ @ 873 NONAME
	 ?_GetBaseMessageMap@COpenDocsDlg@@KGPBUAFX_MSGMAP@@XZ @ 874 NONAME
	 ?_GetBaseMessageMap@CPaletteWnd@@KGPBUAFX_MSGMAP@@XZ @ 875 NONAME
	 ?_GetBaseMessageMap@CPartDoc@@KGPBUAFX_MSGMAP@@XZ @ 876 NONAME
	 ?_GetBaseMessageMap@CPartFrame@@KGPBUAFX_MSGMAP@@XZ @ 877 NONAME
	 ?_GetBaseMessageMap@CPartView@@KGPBUAFX_MSGMAP@@XZ @ 878 NONAME
	 ?_GetBaseMessageMap@CProjTypeIconList@@KGPBUAFX_MSGMAP@@XZ @ 879 NONAME
	 ?_GetBaseMessageMap@CPropButton@@KGPBUAFX_MSGMAP@@XZ @ 880 NONAME
	 ?_GetBaseMessageMap@CPropEdit@@KGPBUAFX_MSGMAP@@XZ @ 881 NONAME
	 ?_GetBaseMessageMap@CPropList@@KGPBUAFX_MSGMAP@@XZ @ 882 NONAME
	 ?_GetBaseMessageMap@CPropListBox@@KGPBUAFX_MSGMAP@@XZ @ 883 NONAME
	 ?_GetBaseMessageMap@CRedoControl@@KGPBUAFX_MSGMAP@@XZ @ 884 NONAME
	 ?_GetBaseMessageMap@CSheetWnd@@KGPBUAFX_MSGMAP@@XZ @ 885 NONAME
	 ?_GetBaseMessageMap@CSizeCombo@@KGPBUAFX_MSGMAP@@XZ @ 886 NONAME
	 ?_GetBaseMessageMap@CSlobPage@@KGPBUAFX_MSGMAP@@XZ @ 887 NONAME
	 ?_GetBaseMessageMap@CSlobWnd@@KGPBUAFX_MSGMAP@@XZ @ 888 NONAME
	 ?_GetBaseMessageMap@CStaticVCenter@@KGPBUAFX_MSGMAP@@XZ @ 889 NONAME
	 ?_GetBaseMessageMap@CStringListEdit@@KGPBUAFX_MSGMAP@@XZ @ 890 NONAME
	 ?_GetBaseMessageMap@CStringListGridWnd@@KGPBUAFX_MSGMAP@@XZ @ 891 NONAME
	 ?_GetBaseMessageMap@CSushiBar@@KGPBUAFX_MSGMAP@@XZ @ 892 NONAME
	 ?_GetBaseMessageMap@CTabbedDialog@@KGPBUAFX_MSGMAP@@XZ @ 893 NONAME
	 ?_GetBaseMessageMap@CTap@@KGPBUAFX_MSGMAP@@XZ @ 894 NONAME
	 ?_GetBaseMessageMap@CTheApp@@KGPBUAFX_MSGMAP@@XZ @ 895 NONAME
	 ?_GetBaseMessageMap@CTipCtrl@@KGPBUAFX_MSGMAP@@XZ @ 896 NONAME
	 ?_GetBaseMessageMap@CTipDlg@@KGPBUAFX_MSGMAP@@XZ @ 897 NONAME
	 ?_GetBaseMessageMap@CToggleBitmapButton@@KGPBUAFX_MSGMAP@@XZ @ 898 NONAME
	 ?_GetBaseMessageMap@CToolbarCombo@@KGPBUAFX_MSGMAP@@XZ @ 899 NONAME
	 ?_GetBaseMessageMap@CToolbarDialog@@KGPBUAFX_MSGMAP@@XZ @ 900 NONAME
	 ?_GetBaseMessageMap@CToolbarEditCombo@@KGPBUAFX_MSGMAP@@XZ @ 901 NONAME
	 ?_GetBaseMessageMap@CToolCustomizer@@KGPBUAFX_MSGMAP@@XZ @ 902 NONAME
	 ?_GetBaseMessageMap@CToolsGrid@@KGPBUAFX_MSGMAP@@XZ @ 903 NONAME
	 ?_GetBaseMessageMap@CTreeCtl@@KGPBUAFX_MSGMAP@@XZ @ 904 NONAME
	 ?_GetBaseMessageMap@CTreeListBox@@KGPBUAFX_MSGMAP@@XZ @ 905 NONAME
	 ?_GetBaseMessageMap@CUndoControl@@KGPBUAFX_MSGMAP@@XZ @ 906 NONAME
	 ?_GetBaseMessageMap@CUndoList@@KGPBUAFX_MSGMAP@@XZ @ 907 NONAME
	 ?_GetBaseMessageMap@CVshellPackage@@KGPBUAFX_MSGMAP@@XZ @ 908 NONAME
	 ?_GetBaseMessageMap@CWidgetScrollBar@@KGPBUAFX_MSGMAP@@XZ @ 909 NONAME
	 ?_GetBaseMessageMap@CWindowList@@KGPBUAFX_MSGMAP@@XZ @ 910 NONAME
	 ?_GetBaseMessageMap@CWorkspaceDlg@@KGPBUAFX_MSGMAP@@XZ @ 911 NONAME
	 ?_GetRealObject@CCustomBarProxy@@MAEPAXXZ @ 912 NONAME
	 ?_GetRealObject@CMenuPopupProxy@@MAEPAXXZ @ 913 NONAME
	 ?_NewEnum@CAutoCollection@@IAEPAUIUnknown@@XZ @ 914 NONAME
	 ?_NewEnum@CAutoDocuments@@IAEPAUIUnknown@@XZ @ 915 NONAME
	 ?_NewEnum@CAutoWindows@@IAEPAUIUnknown@@XZ @ 916 NONAME
	 ?_SushiGetSafeOwner@@YGPAUHWND__@@PAVCWnd@@@Z @ 917 NONAME
	 ?Abort@CInitFile@@UAEXXZ @ 918 NONAME
	 ?AbortDrop@CDragNDrop@@UAEXXZ @ 919 NONAME
	 ?AccelFromKc@@YAXAAUtagACCEL@@GI@Z @ 920 NONAME
	 ?AccelToDWord@CKeyCustDlg@@QAEKAAUtagACCEL@@@Z @ 921 NONAME
	 ?AcceptControl@CGridControlWnd@@UAEHH@Z @ 922 NONAME
	 ?AcceptControl@CStringListGridWnd@@UAEHH@Z @ 923 NONAME
	 ?ACMEDecrypt@@YAEPAUHINSTANCE__@@IIPAD11@Z @ 924 NONAME
	 ?Activate@C3dPropertyPage@@UAEXIPAVCSlob@@@Z @ 925 NONAME
	 ?Activate@CCustomDialog@@UAEHPAVCTabbedDialog@@VCPoint@@@Z @ 926 NONAME
	 ?Activate@CDlgTab@@UAEHPAVCTabbedDialog@@VCPoint@@@Z @ 927 NONAME
	 ?Activate@CDocObjectContainerItem@@UAEXJPAVCView@@@Z @ 928 NONAME
	 ?Activate@CKeyCustDlg@@MAEHPAVCTabbedDialog@@VCPoint@@@Z @ 929 NONAME
	 ?Activate@CNewFileDialogTab@@UAEHPAVCTabbedDialog@@VCPoint@@@Z @ 930 NONAME
	 ?Activate@CNewOtherDocDialogTab@@UAEHPAVCTabbedDialog@@VCPoint@@@Z @ 931 NONAME
	 ?Activate@CNewProjectDialogTab@@UAEHPAVCTabbedDialog@@VCPoint@@@Z @ 932 NONAME
	 ?Activate@CNewTemplateDialogTab@@UAEHPAVCTabbedDialog@@VCPoint@@@Z @ 933 NONAME
	 ?Activate@CNewWorkspaceDialogTab@@UAEHPAVCTabbedDialog@@VCPoint@@@Z @ 934 NONAME
	 ?Activate@CToolbarDialog@@UAEHPAVCTabbedDialog@@VCPoint@@@Z @ 935 NONAME
	 ?ActivateDoc@CPartDoc@@UAEXXZ @ 936 NONAME
	 ?ActivateDocObjectView@CIPCompContainerItem@@UAEJPAVCView@@@Z @ 937 NONAME
	 ?ActivateDraggableCustomizePage@CTheApp@@QAEXPAVCDlgTab@@@Z @ 938 NONAME
	 ?ActivateExistingDoc@@YAPAVCPartDoc@@PBDPAVCDocTemplate@@@Z @ 939 NONAME
	 ?ActivateFrame@CPartFrame@@UAEXH@Z @ 940 NONAME
	 ?ActivateMe@XOleDocumentSite@CDocObjectContainerItem@@UAGJPAUIOleDocumentView@@@Z @ 941 NONAME
	 ?ActivateNextControl@CGridControlWnd@@UAEXXZ @ 942 NONAME
	 ?ActivateNoFocus@CPaletteWnd@@QAEXXZ @ 943 NONAME
	 ?ActivatePalettes@CDockManager@@QAEXH@Z @ 944 NONAME
	 ?ActivatePrevControl@CGridControlWnd@@UAEXXZ @ 945 NONAME
	 ?ActivatePropertyBrowser@@YAXXZ @ 946 NONAME
	 ?ActivateSlobWnd@@YAXPAVCSlobWnd@@@Z @ 947 NONAME
	 ?ActivateTab@CTabbedDialog@@IAEHHH@Z @ 948 NONAME
	 ?ActivateTab@CWidgetScrollBar@@QAEXH@Z @ 949 NONAME
	 ?ActivateView@CDockWorker@@QAEXXZ @ 950 NONAME
	 ?ActivateWindow@CPaletteWnd@@QAEXH@Z @ 951 NONAME
	 ?ActiveWindow@CPartDoc@@IAEPAUIDispatch@@XZ @ 952 NONAME
	 ?Add@CAutoDocuments@@IAEPAUIDispatch@@PBDABUtagVARIANT@@@Z @ 953 NONAME
	 ?Add@CCmdGroup@@UAEHPAVCCmd@@H@Z @ 954 NONAME
	 ?Add@CCmdGroupSeparator@@UAEHPAVCCmd@@H@Z @ 955 NONAME
	 ?Add@CCmdMenu@@UAEHPAVCCmdGroup@@@Z @ 956 NONAME
	 ?Add@CMainGroup@@UAEHPAVCCmd@@@Z @ 957 NONAME
	 ?Add@CMultiSlob@@UAEXPAVCSlob@@@Z @ 958 NONAME
	 ?Add@COleParentUndoUnit@@UAGJPAUIOleUndoUnit@@@Z @ 959 NONAME
	 ?Add@COleUndoManager@@UAGJPAUIOleUndoUnit@@@Z @ 960 NONAME
	 ?Add@CSlob@@UAEXPAV1@@Z @ 961 NONAME
	 ?Add@CTipFileQueue@@QAEXPAVCTipFile@@@Z @ 962 NONAME
	 ?Add@CTypedRecentFileList@@UAEXPBDPAVCDocTemplate@@@Z @ 963 NONAME
	 ?Add@CWinList@@QAEXPAUFMT_WINGROUP@@@Z @ 964 NONAME
	 ?Add@XDocuments@CAutoDocuments@@EAGJPAGUtagVARIANT@@PAPAUIDispatch@@@Z @ 965 NONAME
	 ?AddAllPageToList@COlePage@@SAIIPAUtagCAUUID@@@Z @ 966 NONAME
	 ?AddBitmap@CCustomBar@@QAEXHW4BITMAPSOURCE@@PAUHBITMAP__@@@Z @ 967 NONAME
	 ?AddBitmap@CCustomBarProxy@@UAEXHW4BITMAPSOURCE@@PAUHBITMAP__@@@Z @ 968 NONAME
	 ?AddBitmap@CMenuPopupProxy@@UAEXHW4BITMAPSOURCE@@PAUHBITMAP__@@@Z @ 969 NONAME
	 ?AddButtons@CMessageBox@@QAEXPBD@Z @ 970 NONAME
	 ?AddByOrder@CTipFileQueue@@IAEXPAVCTipFile@@@Z @ 971 NONAME
	 ?AddCategory@CBldWizSelectDlg@@AAEHPAVCRegLite@@PAU_TREEITEM@@@Z @ 972 NONAME
	 ?AddCellRow@CGridWnd@@QAEPAVCGridCellRow@@XZ @ 973 NONAME
	 ?AddColor@CColorCombo@@QAEHK@Z @ 974 NONAME
	 ?AddCommand@CApplication@@QAEHPBD0JJ@Z @ 975 NONAME
	 ?AddCommand@CCmdCache@@QAEHGGGGPAVCPack@@PBDH@Z @ 976 NONAME
	 ?AddCommand@CTheApp@@QAEHGGGGPAVCPack@@PBDH@Z @ 977 NONAME
	 ?AddCommand@XApplication@CApplication@@EAGJPAG0JJPAF@Z @ 978 NONAME
	 ?AddCommandBarButton@CApplication@@QAEXJPBDJ@Z @ 979 NONAME
	 ?AddCommandBarButton@CTheApp@@QAEHPAVCPackage@@KIJ@Z @ 980 NONAME
	 ?AddCommandBarButton@XApplication@CApplication@@EAGJJPAGJ@Z @ 981 NONAME
	 ?AddCommandResource@CCmdCache@@QAEHPAVCPack@@PBDH@Z @ 982 NONAME
	 ?AddDependant@CSlob@@QAEXPAV1@@Z @ 983 NONAME
	 ?AddEntry@CFontNameCombo@@QAEXABVCString@@K@Z @ 984 NONAME
	 ?AddGlobalAcceleratorTable@@YAXPAUHACCEL__@@G@Z @ 985 NONAME
	 ?AddGlobalAcceleratorTable@@YAXPBDG@Z @ 986 NONAME
	 ?AddGoToItems@CPackage@@UAEXPAVCGoToDialog@@@Z @ 987 NONAME
	 ?AddGroup@CToolGroup@@QAEXH@Z @ 988 NONAME
	 ?AddHead@CDirList@@QAEPAU__POSITION@@PAVCDir@@@Z @ 989 NONAME
	 ?AddHead@CDirList@@QAEXPAV1@@Z @ 990 NONAME
	 ?AddHead@CPathList@@QAEPAU__POSITION@@PAVCPath@@@Z @ 991 NONAME
	 ?AddHead@CPathList@@QAEXPAV1@@Z @ 992 NONAME
	 ?AddIconImage@CTreeLite@@QAEHI@Z @ 993 NONAME
	 ?AddIconImage@CTreeLite@@QAEHPAUHICON__@@@Z @ 994 NONAME
	 ?AddIPCompFrameHook@CMainFrame@@QAEXPAVCIPCompFrameHook@@@Z @ 995 NONAME
	 ?AddItem@CBContextPopupMenu@@QAEHIPBD@Z @ 996 NONAME
	 ?AddItem@CContextPopupMenu@@QAEXIPBD@Z @ 997 NONAME
	 ?AddItem@CGoToDialog@@QAEXPAVCGoToItem@@@Z @ 998 NONAME
	 ?AddItem@CProjTypeIconList@@QAEHPAVCProjTypeListItem@@@Z @ 999 NONAME
	 ?AddItem@CProjTypeList@@QAEHPAVCProjTypeListItem@@@Z @ 1000 NONAME
	 ?AddItem@CPropCheckList@@QAEHPBDI@Z @ 1001 NONAME
	 ?AddItems@CCmdMenu@@UAEXPAVCBMenuPopup@@H@Z @ 1002 NONAME
	 ?AddKeyBinding@CApplication@@QAEXPBD00@Z @ 1003 NONAME
	 ?AddKeyBinding@XApplication@CApplication@@EAGJPAG00@Z @ 1004 NONAME
	 ?AddKeymapToGrid@CHelpKeyWnd@@QAEXPAVCGridWnd@@PAVCKeymap@@PBD2G@Z @ 1005 NONAME
	 ?AddKeymapToListBox@CKeyCustDlg@@IAEXPAVCKeymap@@PAVCListBox@@IPBDGH@Z @ 1006 NONAME
	 ?AddKeyToToolTip@CTheApp@@SAXAAVCString@@IGPBD@Z @ 1007 NONAME
	 ?AddListItems@CGridControlRow@@UAEXHPAVCComboBox@@@Z @ 1008 NONAME
	 ?AddMDIChild@CDockManager@@QAEXPAVCMDIChildDock@@@Z @ 1009 NONAME
	 ?AddMenu@CCmdMenu@@UAEHPAVCBMenuPopup@@@Z @ 1010 NONAME
	 ?AddMenuItem@CBMenuPopup@@QAEXHPAVCBMenuItem@@@Z @ 1011 NONAME
	 ?AddMetaCategory@CBldWizSelectDlg@@AAEHPAVCRegLite@@PAU_TREEITEM@@@Z @ 1012 NONAME
	 ?AddNewAutoItem@CVshellPackage@@IAEXPBU_GUID@@GGPBD0@Z @ 1013 NONAME
	 ?AddNewProjectTypes@CPackage@@UAEXAAVCPtrList@@@Z @ 1014 NONAME
	 ?AddNewRow@CStringListGridWnd@@UAEXH@Z @ 1015 NONAME
	 ?AddNewRow@CToolsGrid@@UAEXH@Z @ 1016 NONAME
	 ?AddOptDlgPages@CPackage@@UAEXPAVCTabbedDialog@@W4OPTDLG_TYPE@@@Z @ 1017 NONAME
	 ?AddOptDlgPages@CVshellPackage@@UAEXPAVCTabbedDialog@@W4OPTDLG_TYPE@@@Z @ 1018 NONAME
	 ?AddPalette@CDockManager@@QAEXPAVCPaletteWnd@@@Z @ 1019 NONAME
	 ?AddPopToGroup@CCmdCache@@QAEXPAUPOPDESC@@PAVCCmdGroup@@@Z @ 1020 NONAME
	 ?AddProject@CApplication@@QAEXPBD00F@Z @ 1021 NONAME
	 ?AddProject@XApplication@CApplication@@EAGJPAG00F@Z @ 1022 NONAME
	 ?AddPropertyPage@@YAHPAVC3dPropertyPage@@PAVCSlob@@@Z @ 1023 NONAME
	 ?AddPropertyPage@CSheetWnd@@QAEHPAVC3dPropertyPage@@PAVCSlob@@@Z @ 1024 NONAME
	 ?AddRef@CEnumOleUndoUnit@@UAGKXZ @ 1025 NONAME
	 ?AddRef@CMyOleDispatchImpl@@UAGKXZ @ 1026 NONAME
	 ?AddRef@COleParentUndoUnit@@UAGKXZ @ 1027 NONAME
	 ?AddRef@COleUndoManager@@UAGKXZ @ 1028 NONAME
	 ?AddRef@COleUndoUnit@@UAGKXZ @ 1029 NONAME
	 ?AddRef@XAmbientDispatch@CIPCompContainerItem@@UAGKXZ @ 1030 NONAME
	 ?AddRef@XApplication@CApplication@@EAGKXZ @ 1031 NONAME
	 ?AddRef@XAutomationItems@CVshellPackage@@UAGKXZ @ 1032 NONAME
	 ?AddRef@XBuilderWizardManager@CBuilderWizardManager@@UAGKXZ @ 1033 NONAME
	 ?AddRef@XDocuments@CAutoDocuments@@EAGKXZ @ 1034 NONAME
	 ?AddRef@XDualObjs@CAutoCollection@@EAGKXZ @ 1035 NONAME
	 ?AddRef@XEnumVariant@CEnumVariantObjs@@UAGKXZ @ 1036 NONAME
	 ?AddRef@XGenericDocument@CAutoDocumentDefault@@EAGKXZ @ 1037 NONAME
	 ?AddRef@XGenericWindow@CAutoWindowDefault@@EAGKXZ @ 1038 NONAME
	 ?AddRef@XInternalTrackSelection@CInternalTrackSelection@@UAGKXZ @ 1039 NONAME
	 ?AddRef@XIPCompBuilderWizardManager@CIPCompBuilderWizardManager@@UAGKXZ @ 1040 NONAME
	 ?AddRef@XMsoComponent@CIPCompMainFrame@@UAGKXZ @ 1041 NONAME
	 ?AddRef@XMsoComponentHost@CIPCompHostApp@@UAGKXZ @ 1042 NONAME
	 ?AddRef@XMyOleClientSite@CIPCompContainerItem@@UAGKXZ @ 1043 NONAME
	 ?AddRef@XMyOleIPSite@CIPCompContainerItem@@UAGKXZ @ 1044 NONAME
	 ?AddRef@XOleCommandTarget@CDocObjectFrameHook@@UAGKXZ @ 1045 NONAME
	 ?AddRef@XOleCompUIMgr@CIPCompFrameHook@@UAGKXZ @ 1046 NONAME
	 ?AddRef@XOleDocumentSite@CDocObjectContainerItem@@UAGKXZ @ 1047 NONAME
	 ?AddRef@XOleInPlaceSite@CDocObjectContainerItem@@UAGKXZ @ 1048 NONAME
	 ?AddRef@XOleIPComponentSite@CIPCompContainerItem@@UAGKXZ @ 1049 NONAME
	 ?AddRef@XOleIPCompUIMgr@CIPCompFrameHook@@UAGKXZ @ 1050 NONAME
	 ?AddRef@XProjects@CAutoProjects@@EAGKXZ @ 1051 NONAME
	 ?AddRef@XPropertyNotifySink@COleAllPage@@UAGKXZ @ 1052 NONAME
	 ?AddRef@XPropertyPageSite@COlePage@@UAGKXZ @ 1053 NONAME
	 ?AddRef@XRecordNotifyShell@CVshellPackage@@UAGKXZ @ 1054 NONAME
	 ?AddRef@XServiceProvider@CApplication@@UAGKXZ @ 1055 NONAME
	 ?AddRef@XServiceProvider@CDocObjectContainerItem@@UAGKXZ @ 1056 NONAME
	 ?AddRef@XServiceProvider@CIPCompFrameHook@@UAGKXZ @ 1057 NONAME
	 ?AddRef@XServiceProvider@CIPCompMessageFilter@@UAGKXZ @ 1058 NONAME
	 ?AddRef@XSupportErrorInfo@CApplication@@UAGKXZ @ 1059 NONAME
	 ?AddRef@XSupportErrorInfo@CAutoDocumentDefault@@UAGKXZ @ 1060 NONAME
	 ?AddRef@XSupportErrorInfo@CAutoDocuments@@UAGKXZ @ 1061 NONAME
	 ?AddRef@XSupportErrorInfo@CAutoProjects@@UAGKXZ @ 1062 NONAME
	 ?AddRef@XSupportErrorInfo@CAutoWindowDefault@@UAGKXZ @ 1063 NONAME
	 ?AddRef@XSupportErrorInfo@CAutoWindows@@UAGKXZ @ 1064 NONAME
	 ?AddRef@XTrackSelection@COleTrackSelection@@UAGKXZ @ 1065 NONAME
	 ?AddRef@XWindows@CAutoWindows@@EAGKXZ @ 1066 NONAME
	 ?AddRegistryFilters@@YAHAAVCString@@HAAUtagOFNA@@@Z @ 1067 NONAME
	 ?AddRow@CGridWnd@@UAEXPAVCGridRow@@H@Z @ 1068 NONAME
	 ?AddSize@CSizeCombo@@QAEHH@Z @ 1069 NONAME
	 ?AddString@CElList@@QAEHABVCString@@@Z @ 1070 NONAME
	 ?AddString@CErrorContext@@UAEXI@Z @ 1071 NONAME
	 ?AddString@CErrorContext@@UAEXPBD@Z @ 1072 NONAME
	 ?AddString@CGoToDialog@@QAEXPBDK@Z @ 1073 NONAME
	 ?AddString@CProjTypeList@@QAEHPBD@Z @ 1074 NONAME
	 ?AddString@CStorageEC@@UAEXI@Z @ 1075 NONAME
	 ?AddString@CStorageEC@@UAEXPBD@Z @ 1076 NONAME
	 ?AddString@CStringListGridWnd@@QAEHPBD@Z @ 1077 NONAME
	 ?AddSubMenu@CBContextPopupMenu@@QAEXPAV1@PBD@Z @ 1078 NONAME
	 ?AddSubMenu@CContextPopupMenu@@QAEXPAV1@PBD@Z @ 1079 NONAME
	 ?AddTab@CTabbedDialog@@QAEXPAVCDlgTab@@@Z @ 1080 NONAME
	 ?AddTab@CTabRow@@QAEXAAVCString@@PAVCDC@@HK@Z @ 1081 NONAME
	 ?AddTab@CWidgetScrollBar@@QAEXPBDKH@Z @ 1082 NONAME
	 ?AddTabAt@CWidgetScrollBar@@QAEXHPBDKH@Z @ 1083 NONAME
	 ?AddTail@CDirList@@QAEPAU__POSITION@@PAVCDir@@@Z @ 1084 NONAME
	 ?AddTail@CDirList@@QAEXPAV1@@Z @ 1085 NONAME
	 ?AddTail@CPathList@@QAEPAU__POSITION@@PAVCPath@@@Z @ 1086 NONAME
	 ?AddTail@CPathList@@QAEXPAV1@@Z @ 1087 NONAME
	 ?AddText@CCustomBar@@QAEXH@Z @ 1088 NONAME
	 ?AddText@CCustomBar@@QAEXHABVCString@@H@Z @ 1089 NONAME
	 ?AddText@CCustomBarProxy@@UAEXH@Z @ 1090 NONAME
	 ?AddText@CCustomBarProxy@@UAEXHABVCString@@H@Z @ 1091 NONAME
	 ?AddText@CMenuPopupProxy@@UAEXH@Z @ 1092 NONAME
	 ?AddText@CMenuPopupProxy@@UAEXHABVCString@@H@Z @ 1093 NONAME
	 ?AddToMap@COleAllPage@@IAEHPAUIDispatch@@PAVCMapStringToPtr@@@Z @ 1094 NONAME
	 ?AddTool@CToolList@@QAEHPAVCTool@@@Z @ 1095 NONAME
	 ?AddToolbar@CToolbarDialog@@QAEXPAVCDockWorker@@@Z @ 1096 NONAME
	 ?AddToRecentFileList@CTheApp@@UAEXPBD@Z @ 1097 NONAME
	 ?AddVariable@CEnvironmentVariableList@@QAEXPBD0@Z @ 1098 NONAME
	 ?AddWildFilter@@YAXAAVCString@@AAUtagOFNA@@@Z @ 1099 NONAME
	 ?AddWnd@CDockWnd@@QAEHPAVCWnd@@ABVCRect@@K@Z @ 1100 NONAME
	 ?AddWnd@CDockWnd@@QAEHPAVCWnd@@PAUDOCKRESTORE@@@Z @ 1101 NONAME
	 ?AddWnd@CDockWnd@@QAEHPAVCWnd@@VCSize@@@Z @ 1102 NONAME
	 ?AdjustControlRect@CGridControlRow@@UAEXW4GRID_CONTROL_TYPE@@HAAVCRect@@@Z @ 1103 NONAME
	 ?AdjustDropRow@CGridWnd@@UAEXAAPAVCGridRow@@@Z @ 1104 NONAME
	 ?AdjustDropRow@CStringListGridWnd@@UAEXAAPAVCGridRow@@@Z @ 1105 NONAME
	 ?AdjustForMargins@CGridControlRow@@UAEXAAVCRect@@H@Z @ 1106 NONAME
	 ?AdjustMenuBar@CCustomBar@@UAEXXZ @ 1107 NONAME
	 ?AdjustMenuSize@CBMenuPopup@@QAEXPAVCBMenuItem@@@Z @ 1108 NONAME
	 ?AdjustPathSymbols@@YAXPAD@Z @ 1109 NONAME
	 ?AdjustTopVisible@CGridWnd@@QAEXXZ @ 1110 NONAME
	 ?AfxGetApp@@YGPAVCWinApp@@XZ @ 1111 NONAME
	 ?AfxGetMainWnd@@YGPAVCWnd@@XZ @ 1112 NONAME
	 ?AfxLoadCursor@@YAPAUHICON__@@PBD@Z @ 1113 NONAME
	 ?AfxLoadIcon@@YAPAUHICON__@@I@Z @ 1114 NONAME
	 ?AfxLoadIcon@@YAPAUHICON__@@PBD@Z @ 1115 NONAME
	 ?AllocateEntry@CPickList@@IAEXW4PickListType@@I@Z @ 1116 NONAME
	 ?AllocateProxy@CBMenuPopup@@QAEXXZ @ 1117 NONAME
	 ?AllocateStack@CRegExStack@@IAEXXZ @ 1118 NONAME
	 ?AnsiCodePageToIsoCodePage@@YAHPBDPAVCString@@@Z @ 1119 NONAME
	 ?AppendButton@CCustomBar@@UAEHI@Z @ 1120 NONAME
	 ?AppendExtraPages@CSheetWnd@@QAEHXZ @ 1121 NONAME
	 ?AppendExtraPropertyPages@@YAHXZ @ 1122 NONAME
	 ?AppendExtraPropertyPages@CPackage@@UAEHABU_GUID@@PAUIUnknown@@@Z @ 1123 NONAME
	 ?AppendFilterSuffix@@YAXAAVCString@@AAUtagOFNA@@ABV1@H@Z @ 1124 NONAME
	 ?AppendFilterSuffix@@YAXAAVCString@@AAUtagOFNA@@IH@Z @ 1125 NONAME
	 ?AppendMenuA@CBMenuPopup@@QAEHIIPBDPAV1@@Z @ 1126 NONAME
	 ?AppendSubdirName@CDir@@QAEXPBD@Z @ 1127 NONAME
	 ?Apply@COleAllPage@@QAEHXZ @ 1128 NONAME
	 ?Apply@CSlobSequence@@QAEXXZ @ 1129 NONAME
	 ?ApplyControlMapFlags@@YAXPAUCControlMap@@AAW4GPT@@PAVCSlob@@@Z @ 1130 NONAME
	 ?ApplyDefaultExtension@C3dFileDialog@@QAEXXZ @ 1131 NONAME
	 ?ApplyProperty@COleAllPage@@IAEJJPAVCPropItem@@PAUIDispatch@@@Z @ 1132 NONAME
	 ?Arrange@CAutoWindows@@IAEXABUtagVARIANT@@@Z @ 1133 NONAME
	 ?Arrange@XWindows@CAutoWindows@@EAGJUtagVARIANT@@@Z @ 1134 NONAME
	 ?ArrayOfType@CDockManager@@QAEXW4DOCKTYPE@@PAVCObArray@@HH0@Z @ 1135 NONAME
	 ?AskAvailable@CPackage@@UAEHI@Z @ 1136 NONAME
	 ?AskAvailable@CVshellPackage@@UAEHI@Z @ 1137 NONAME
	 ?AssertValid@CObject@@UBEXXZ @ 1138 NONAME
	 ?Associate@CDockWorker@@QAEXHI@Z @ 1139 NONAME
	 ?AssociatedObjectReleased@CAutoDocumentDefault@@UAEXXZ @ 1140 NONAME
	 ?AssociatedObjectReleased@CAutoObj@@UAEXXZ @ 1141 NONAME
	 ?AssociatedObjectReleased@CAutoWindowDefault@@UAEXXZ @ 1142 NONAME
	 ?Attach@CImageWell@@QAEHPAUHBITMAP__@@VCSize@@@Z @ 1143 NONAME
	 ?AttachBar@CCustomBarProxy@@QAEXPAVCCustomBar@@@Z @ 1144 NONAME
	 ?AttachDispatch@CMiniOleDispatchDriver@@QAEXPAUIDispatch@@H@Z @ 1145 NONAME
	 ?AttachGlyphWell@CStringListGlyphGridWnd@@QAEHPAUHBITMAP__@@@Z @ 1146 NONAME
	 ?AttachMenu@CMenuPopupProxy@@QAEXPAVCBMenuPopup@@@Z @ 1147 NONAME
	 ?AttemptCloseDoc@CPartDoc@@UAEHXZ @ 1148 NONAME
	 ?AutoLoad@C3dBitmapButton@@QAEHIPAVCWnd@@HPBUtagRECT@@@Z @ 1149 NONAME
	 ?AutomationClose@CPartFrame@@QAE?AW4DsSaveStatus@@ABUtagVARIANT@@@Z @ 1150 NONAME
	 ?AutomationObjectReleased@CPartDoc@@QAEXXZ @ 1151 NONAME
	 ?AutomationObjectReleased@CPartFrame@@QAEXXZ @ 1152 NONAME
	 ?AutosaveFileExists@CAutosave@@UAEHABVCPath@@AAV2@@Z @ 1153 NONAME
	 ?AutoSelectInitialCommand@CCustomDialog@@IAEXXZ @ 1154 NONAME
	 ?BatchAdd@CCustomBarProxy@@UAEXHHIHPAUHBITMAP__@@ABVCString@@@Z @ 1155 NONAME
	 ?BatchAdd@CMenuPopupProxy@@UAEXHHIHPAUHBITMAP__@@ABVCString@@@Z @ 1156 NONAME
	 ?BatchBegin@CCustomBarProxy@@UAEXH@Z @ 1157 NONAME
	 ?BatchBegin@CMenuPopupProxy@@UAEXH@Z @ 1158 NONAME
	 ?BatchEnd@CCustomBarProxy@@UAEXXZ @ 1159 NONAME
	 ?BatchEnd@CMenuPopupProxy@@UAEXXZ @ 1160 NONAME
	 ?BeautifyAllCaps@@YAXPAD@Z @ 1161 NONAME
	 ?BeginDrag@CGridWnd@@UAEHIABVCPoint@@@Z @ 1162 NONAME
	 ?BeginDrag@CToolsGrid@@UAEHIABVCPoint@@@Z @ 1163 NONAME
	 ?BeginDragDrop@@YAXPAVCDragNDrop@@@Z @ 1164 NONAME
	 ?BeginDragDrop@@YAXVCPoint@@PAVCSlob@@@Z @ 1165 NONAME
	 ?BeginDragDrop@CTreeCtl@@UAEXXZ @ 1166 NONAME
	 ?BeginLayout@CDockWnd@@IAEPAU_DWI@@XZ @ 1167 NONAME
	 ?BeginModalState@CMainFrame@@UAEXXZ @ 1168 NONAME
	 ?BeginModalState@CWnd@@UAEXXZ @ 1169 NONAME
	 ?BeginPercentDone@CSushiBar@@QAEXPBD@Z @ 1170 NONAME
	 ?BeginPropertyBrowserEdit@@YAHIIII@Z @ 1171 NONAME
	 ?BeginSetRepeatCount@CTheApp@@QAEXHH@Z @ 1172 NONAME
	 ?BeginUndo@CIPCompDoc@@QAEXPBD@Z @ 1173 NONAME
	 ?BeginUndo@CIPCompSlob@@UAEXI@Z @ 1174 NONAME
	 ?BeginUndo@CSlob@@UAEXI@Z @ 1175 NONAME
	 ?BeginUndo@CSlobWnd@@QAEXI@Z @ 1176 NONAME
	 ?BeginUndo@CSlobWnd@@QAEXPBD@Z @ 1177 NONAME
	 ?BeginUndo@CUndoSlob@@QAEXIPAVCSlobWnd@@H@Z @ 1178 NONAME
	 ?BeginUndo@CUndoSlob@@QAEXPBDPAVCSlobWnd@@H@Z @ 1179 NONAME
	 ?BltCommandBitmap@CCustomBar@@QAEHPAUHBITMAP__@@HPAUHDC__@@H1@Z @ 1180 NONAME
	 ?BoostPriority@CFileChange@@IAEXXZ @ 1181 NONAME
	 ?Build@CApplication@@QAEXABUtagVARIANT@@@Z @ 1182 NONAME
	 ?Build@XApplication@CApplication@@EAGJUtagVARIANT@@@Z @ 1183 NONAME
	 ?BuildFilterList@CTheApp@@QAEXAAVCString@@PAVCPtrArray@@HPAUIPkgProject@@@Z @ 1184 NONAME
	 ?BuildMenu@CMainGroup@@QAEXPAVCBMenuPopup@@@Z @ 1185 NONAME
	 ?BuildMenu@CMainGroup@@QAEXPAVCMenu@@@Z @ 1186 NONAME
	 ?BuildNewList@CAutoProjects@@AAEXXZ @ 1187 NONAME
	 ?BuildSingleMenu@CMainGroup@@QAEXPAVCBMenuPopup@@H@Z @ 1188 NONAME
	 ?BuildTabItemList@CTabbedDialog@@IAEXAAVCObList@@AAVCMapWordToOb@@PAVCWnd@@@Z @ 1189 NONAME
	 ?ButtonModified@CCustomBar@@IAEXHH@Z @ 1190 NONAME
	 ?ButtonModified@CCustomBarProxy@@UAEXHH@Z @ 1191 NONAME
	 ?ButtonModified@CMenuPopupProxy@@UAEXHH@Z @ 1192 NONAME
	 ?CalcFixedLayout@COldStatusBar@@UAE?AVCSize@@HH@Z @ 1193 NONAME
	 ?CalcFixedLayout@COldToolBar@@UAE?AVCSize@@HH@Z @ 1194 NONAME
	 ?CalcMaxPageSize@CSheetWnd@@QAE?AVCSize@@H@Z @ 1195 NONAME
	 ?CalcMenuSize@CBMenuPopup@@QAEXXZ @ 1196 NONAME
	 ?CalcSel@CDropControl@@QAEHVCPoint@@@Z @ 1197 NONAME
	 ?CalcSel@CUndoList@@QAEHVCPoint@@@Z @ 1198 NONAME
	 ?CalcSizes@CBMenuItem@@IAEXPAVCDC@@@Z @ 1199 NONAME
	 ?CalcStatusRect@CUndoList@@QAE?AVCRect@@V2@@Z @ 1200 NONAME
	 ?CalcTextRect@CTipCtrl@@IAEXXZ @ 1201 NONAME
	 ?CalculateMask@CImageWell@@QAEHXZ @ 1202 NONAME
	 ?CalculateRecentMnemonics@CTheApp@@QAEXXZ @ 1203 NONAME
	 ?CallGeneralPropertyBuilder@COleAllPage@@IAEHPAUIDispatch@@0PAUHWND__@@JPAUtagVARIANT@@@Z @ 1204 NONAME
	 ?CallURLBuilder@COleAllPage@@IAEHPAUIDispatch@@00PAUHWND__@@JPAUtagVARIANT@@@Z @ 1205 NONAME
	 ?CanAct@CClipboardSlob@@UAEHW4ACTION_TYPE@@@Z @ 1206 NONAME
	 ?CanAct@CMultiSlob@@UAEHW4ACTION_TYPE@@@Z @ 1207 NONAME
	 ?CanAct@CSlob@@UAEHW4ACTION_TYPE@@@Z @ 1208 NONAME
	 ?CanActivate@CDocObjectContainerItem@@MAEHXZ @ 1209 NONAME
	 ?CanAdd@CMultiSlob@@UAEHPAVCSlob@@@Z @ 1210 NONAME
	 ?CanAdd@CSlob@@UAEHPAV1@@Z @ 1211 NONAME
	 ?CanBeAddedToProject@CFileNewWizardTemplate@@UAEHPAUIPkgProject@@@Z @ 1212 NONAME
	 ?CanBeAddedToProject@CPartTemplate@@UAEHPAUIPkgProject@@@Z @ 1213 NONAME
	 ?CancelChord@CKeymap@@SAXXZ @ 1214 NONAME
	 ?CancelControl@CGridControlWnd@@UAEXXZ @ 1215 NONAME
	 ?CancelDrag@CGridControlWnd@@UAEXXZ @ 1216 NONAME
	 ?CancelDragDrop@@YAXXZ @ 1217 NONAME
	 ?CancelMenu@CCustomBar@@SAXXZ @ 1218 NONAME
	 ?CancelModes@@YAXXZ @ 1219 NONAME
	 ?CancelModes@CDropControl@@QAEXXZ @ 1220 NONAME
	 ?CancelPage@CSheetWnd@@QAEXXZ @ 1221 NONAME
	 ?CancelPropertyBrowser@@YAXXZ @ 1222 NONAME
	 ?CancelSpawn@CConsoleSpawner@@QAEXXZ @ 1223 NONAME
	 ?CancelSpawn@CTool@@QAEXXZ @ 1224 NONAME
	 ?CancelTab@CCustomizeToolsDialog@@MAEXXZ @ 1225 NONAME
	 ?CancelTab@CDlgTab@@UAEXXZ @ 1226 NONAME
	 ?CancelTab@CNewFileDialogTab@@UAEXXZ @ 1227 NONAME
	 ?CancelTab@CNewOtherDocDialogTab@@UAEXXZ @ 1228 NONAME
	 ?CancelTab@CNewProjectDialogTab@@UAEXXZ @ 1229 NONAME
	 ?CancelTab@CNewTemplateDialogTab@@UAEXXZ @ 1230 NONAME
	 ?CancelTab@CNewWorkspaceDialogTab@@UAEXXZ @ 1231 NONAME
	 ?CanChooseAppearance@CCustomBar@@QAEHXZ @ 1232 NONAME
	 ?CanChooseAppearance@CCustomBarProxy@@UAEHXZ @ 1233 NONAME
	 ?CanChooseAppearance@CMenuPopupProxy@@UAEHXZ @ 1234 NONAME
	 ?CanChooseImageOnly@GLOBAL_DATA@@SAHW4APPEARANCEOPTION@@0@Z @ 1235 NONAME
	 ?CanChooseImageText@GLOBAL_DATA@@SAHW4APPEARANCEOPTION@@0@Z @ 1236 NONAME
	 ?CanChooseTextOnly@GLOBAL_DATA@@SAHW4APPEARANCEOPTION@@0@Z @ 1237 NONAME
	 ?CanClose@CDocObjectView@@UAEHXZ @ 1238 NONAME
	 ?CanClose@CIPCompContainerItem@@UAEHXZ @ 1239 NONAME
	 ?CanClose@CPartView@@UAEHXZ @ 1240 NONAME
	 ?CanCloseAll@CTheApp@@QAEHI@Z @ 1241 NONAME
	 ?CanCloseFrame@CDocObjectDoc@@UAEHPAVCFrameWnd@@@Z @ 1242 NONAME
	 ?CanCloseFrame@CIPCompDoc@@UAEHPAVCFrameWnd@@@Z @ 1243 NONAME
	 ?CanCloseFrame@CPartDoc@@MAEHPAVCFrameWnd@@@Z @ 1244 NONAME
	 ?CanCreateDocument@CPartTemplate@@UAEHPBD@Z @ 1245 NONAME
	 ?CanCreateFile@@YA?AW4CreateFileError@@ABVCString@@0H@Z @ 1246 NONAME
	 ?CanCreateOnDisk@CPath@@QBEHH@Z @ 1247 NONAME
	 ?CanExit@CPackage@@UAEHXZ @ 1248 NONAME
	 ?CanExit@CVshellPackage@@UAEHXZ @ 1249 NONAME
	 ?CanFocus@CCustomBar@@IAEHH@Z @ 1250 NONAME
	 ?CanGlyph@CCustomBarProxy@@UAE?AW4APPEARANCEOPTION@@H@Z @ 1251 NONAME
	 ?CanGlyph@CCustomBarProxy@@UAE?AW4APPEARANCEOPTION@@I@Z @ 1252 NONAME
	 ?CanGlyph@CMenuPopupProxy@@UAE?AW4APPEARANCEOPTION@@H@Z @ 1253 NONAME
	 ?CanGlyph@CMenuPopupProxy@@UAE?AW4APPEARANCEOPTION@@I@Z @ 1254 NONAME
	 ?CanGoTo@CGoToItem@@UAEHHW4GOTO_TYPE@@PBDHK@Z @ 1255 NONAME
	 ?CanGoViewActive@CGoToItem@@UAEHPAVCPartView@@@Z @ 1256 NONAME
	 ?CanInPlaceActivate@XMyOleIPSite@CIPCompContainerItem@@UAGJXZ @ 1257 NONAME
	 ?CanInPlaceActivate@XOleInPlaceSite@CDocObjectContainerItem@@UAGJXZ @ 1258 NONAME
	 ?CanPasteImage@CCustomBar@@QAEHXZ @ 1259 NONAME
	 ?CanPasteImage@CCustomBarProxy@@UAEHXZ @ 1260 NONAME
	 ?CanPasteImage@CMenuPopupProxy@@UAEHXZ @ 1261 NONAME
	 ?CanRedo@CSlobWnd@@QAEHXZ @ 1262 NONAME
	 ?CanRedo@CUndoSlob@@QBEHXZ @ 1263 NONAME
	 ?CanRemove@CSlob@@UAEHPAV1@@Z @ 1264 NONAME
	 ?CanResetImage@CCustomBar@@QAEHXZ @ 1265 NONAME
	 ?CanResetImage@CCustomBarProxy@@UAEHXZ @ 1266 NONAME
	 ?CanResetImage@CMenuPopupProxy@@UAEHXZ @ 1267 NONAME
	 ?CanSave@CFileSaver@@QBEHXZ @ 1268 NONAME
	 ?CanSaveAll@CPartDoc@@SAHXZ @ 1269 NONAME
	 ?CanScroll@CTabRow@@AAEHXZ @ 1270 NONAME
	 ?CanText@CCustomBarProxy@@UAE?AW4APPEARANCEOPTION@@H@Z @ 1271 NONAME
	 ?CanText@CCustomBarProxy@@UAE?AW4APPEARANCEOPTION@@I@Z @ 1272 NONAME
	 ?CanText@CMenuPopupProxy@@UAE?AW4APPEARANCEOPTION@@H@Z @ 1273 NONAME
	 ?CanText@CMenuPopupProxy@@UAE?AW4APPEARANCEOPTION@@I@Z @ 1274 NONAME
	 ?CanUndo@CSlobWnd@@QAEHXZ @ 1275 NONAME
	 ?CanUndo@CUndoSlob@@QBEHXZ @ 1276 NONAME
	 ?Capture@CTabRow@@QAEXH@Z @ 1277 NONAME
	 ?CBShowContextPopupMenu@@YAXPAUPOPDESC@@VCPoint@@PAVCWnd@@@Z @ 1278 NONAME
	 ?CenterRectToMonitor@@YAXPAUHWND__@@PAUtagRECT@@H@Z @ 1279 NONAME
	 ?CenterWindowToMonitor@@YAXPAUHWND__@@0H@Z @ 1280 NONAME
	 ?ChangeCursor@CDragNDrop@@UAEXXZ @ 1281 NONAME
	 ?ChangeExtension@CFileOpenReturn@@QAEXHABVCString@@@Z @ 1282 NONAME
	 ?ChangeExtension@CPath@@QAEXPBD@Z @ 1283 NONAME
	 ?ChangeFileName@CPath@@QAEXPBD@Z @ 1284 NONAME
	 ?ChangePageSize@COleAllPage@@IAEXABVCSize@@@Z @ 1285 NONAME
	 ?ChangeTabCaption@CWidgetScrollBar@@QAEXHPBD@Z @ 1286 NONAME
	 ?CharSet@@YAHXZ @ 1287 NONAME
	 ?Check@CBMenuItem@@QAEXH@Z @ 1288 NONAME
	 ?CheckMDIButtons@CCustomBar@@IAEHIVCPoint@@@Z @ 1289 NONAME
	 ?ChildWindowFromPointAvoidGroupBoxes@@YAPAVCWnd@@PAV1@ABVCPoint@@@Z @ 1290 NONAME
	 ?Clean@CApplication@@QAEXABUtagVARIANT@@@Z @ 1291 NONAME
	 ?Clean@CFormatInfo@@QAEXXZ @ 1292 NONAME
	 ?Clean@XApplication@CApplication@@EAGJUtagVARIANT@@@Z @ 1293 NONAME
	 ?Cleanup@COlePage@@SAXXZ @ 1294 NONAME
	 ?Cleanup@CSlobSequence@@QAEXXZ @ 1295 NONAME
	 ?Clear@CElList@@QAEXXZ @ 1296 NONAME
	 ?Clear@CFormatInfo@@QAEXXZ @ 1297 NONAME
	 ?Clear@CMultiSlob@@UAEXXZ @ 1298 NONAME
	 ?ClearAllTabs@CTabbedDialog@@QAEHXZ @ 1299 NONAME
	 ?ClearContents@CClipboardSlob@@QAEXXZ @ 1300 NONAME
	 ?ClearError@@YAHPAUTERROR@@@Z @ 1301 NONAME
	 ?ClearNamesArray@CFileOpenReturn@@AAEXXZ @ 1302 NONAME
	 ?ClearNode@CTreeCtl@@QAEXHGH@Z @ 1303 NONAME
	 ?ClearPage@CSheetWnd@@QAEXXZ @ 1304 NONAME
	 ?ClearSearchBuffer@CTreeCtl@@QAEXXZ @ 1305 NONAME
	 ?ClearSelection@CGridWnd@@QAEXXZ @ 1306 NONAME
	 ?ClearStatusBarPosition@@YAXXZ @ 1307 NONAME
	 ?ClearStatusBarPositionAndSize@@YAXXZ @ 1308 NONAME
	 ?ClearStatusBarSize@@YAXXZ @ 1309 NONAME
	 ?ClearSystemClick@CBMenuPopup@@SAXXZ @ 1310 NONAME
	 ?Click@CBMenuItem@@QAEIXZ @ 1311 NONAME
	 ?ClipRectToMonitor@@YAXPAUHWND__@@PAUtagRECT@@H@Z @ 1312 NONAME
	 ?ClipWindowToMonitor@@YAXPAUHWND__@@0H@Z @ 1313 NONAME
	 ?Clone@CEnumOleUndoUnit@@UAGJPAPAUIEnumOleUndoUnits@@@Z @ 1314 NONAME
	 ?Clone@CPropBag@@QAEXPAVCSlob@@PAV1@H@Z @ 1315 NONAME
	 ?Clone@CShellConstArg@@UAEPAVCRecArg@@XZ @ 1316 NONAME
	 ?Clone@CSlob@@UAEPAV1@XZ @ 1317 NONAME
	 ?Clone@XEnumVariant@CEnumVariantObjs@@UAGJPAPAUIEnumVARIANT@@@Z @ 1318 NONAME
	 ?ClonePropBag@CSlob@@UAEXPAVCPropBag@@HH@Z @ 1319 NONAME
	 ?Close@CAutoDocumentDefault@@IAE?AW4DsSaveStatus@@ABUtagVARIANT@@@Z @ 1320 NONAME
	 ?Close@CAutoWindowDefault@@IAE?AW4DsSaveStatus@@ABUtagVARIANT@@@Z @ 1321 NONAME
	 ?Close@CImageWell@@QAEXXZ @ 1322 NONAME
	 ?Close@CInitFile@@UAEXXZ @ 1323 NONAME
	 ?Close@COleParentUndoUnit@@UAGJPAUIOleParentUndoUnit@@H@Z @ 1324 NONAME
	 ?Close@COleUndoManager@@UAGJPAUIOleParentUndoUnit@@H@Z @ 1325 NONAME
	 ?Close@CPartDoc@@IAE?AW4DsSaveStatus@@ABUtagVARIANT@@@Z @ 1326 NONAME
	 ?Close@CRegLite@@QAEXXZ @ 1327 NONAME
	 ?Close@CTipFile@@QAE?AW4TipStatus@@XZ @ 1328 NONAME
	 ?Close@XGenericDocument@CAutoDocumentDefault@@EAGJUtagVARIANT@@PAW4DsSaveStatus@@@Z @ 1329 NONAME
	 ?Close@XGenericWindow@CAutoWindowDefault@@EAGJUtagVARIANT@@PAW4DsSaveStatus@@@Z @ 1330 NONAME
	 ?CloseActiveElement@CGridControlWnd@@UAEHXZ @ 1331 NONAME
	 ?CloseActiveElement@CGridWnd@@UAEHXZ @ 1332 NONAME
	 ?CloseAll@CAutoDocuments@@IAE?AW4DsSaveStatus@@ABUtagVARIANT@@@Z @ 1333 NONAME
	 ?CloseAll@CAutoWindows@@IAE?AW4DsSaveStatus@@ABUtagVARIANT@@@Z @ 1334 NONAME
	 ?CloseAll@XDocuments@CAutoDocuments@@EAGJUtagVARIANT@@PAW4DsSaveStatus@@@Z @ 1335 NONAME
	 ?CloseAll@XWindows@CAutoWindows@@EAGJUtagVARIANT@@PAW4DsSaveStatus@@@Z @ 1336 NONAME
	 ?CloseDocumentHook@CDocObjectDoc@@UAEXXZ @ 1337 NONAME
	 ?CloseDocumentHook@CIPCompDoc@@UAEXXZ @ 1338 NONAME
	 ?CloseDocumentHook@CPartDoc@@MAEXXZ @ 1339 NONAME
	 ?CloseFrame@CPartFrame@@QAEXXZ @ 1340 NONAME
	 ?ClosePropertyBrowser@@YAXXZ @ 1341 NONAME
	 ?CloseStorage@CStateSaver@@QAEXXZ @ 1342 NONAME
	 ?CloseWindows@CMainFrame@@QAEXI@Z @ 1343 NONAME
	 ?CmdBarOleSetEditMenu@@YAXPAVCOleClientItem@@PAVCBMenuPopup@@IIII@Z @ 1344 NONAME
	 ?CmdCancelPage@CSheetWnd@@IAEXXZ @ 1345 NONAME
	 ?CmdGeneralPage@CSlobWnd@@QAEXXZ @ 1346 NONAME
	 ?CmdGoto@CMainFrame@@QAEXXZ @ 1347 NONAME
	 ?CmdIDForToolTipKey@CPackage@@UAEII@Z @ 1348 NONAME
	 ?CmdIDForToolTipKey@CVshellPackage@@UAEII@Z @ 1349 NONAME
	 ?CmdIDProp@CSlobWnd@@QAEXXZ @ 1350 NONAME
	 ?CmdNextPage@CSheetWnd@@IAEXXZ @ 1351 NONAME
	 ?CmdOkPage@CSheetWnd@@IAEXXZ @ 1352 NONAME
	 ?CmdPrevPage@CSheetWnd@@IAEXXZ @ 1353 NONAME
	 ?CmdShowProp@CSlobWnd@@QAEXXZ @ 1354 NONAME
	 ?CmdStylesPage@CSlobWnd@@QAEXXZ @ 1355 NONAME
	 ?CmpMgrDoIdle@CTheApp@@AAEHXZ @ 1356 NONAME
	 ?Collapse@CTreeCtl@@QAEXH@Z @ 1357 NONAME
	 ?Collapse@CTreeCtl@@UAEXPAVCNode@@H@Z @ 1358 NONAME
	 ?ColumnFromX@CGridWnd@@QAEHH@Z @ 1359 NONAME
	 ?CommandHelp@@YAJJ@Z @ 1360 NONAME
	 ?CommandToIndex@COldStatusBar@@QBEHI@Z @ 1361 NONAME
	 ?CommandToIndex@COldToolBar@@QBEHI@Z @ 1362 NONAME
	 ?Commit@CFCDialogState@@QAEXXZ @ 1363 NONAME
	 ?Commit@CFormatInfo@@QBEHXZ @ 1364 NONAME
	 ?CommitTab@CDlgTab@@UAEXXZ @ 1365 NONAME
	 ?CommitTab@CFontColorDlg@@MAEXXZ @ 1366 NONAME
	 ?CommitTab@CNewFileDialogTab@@UAEXXZ @ 1367 NONAME
	 ?CommitTab@CNewOtherDocDialogTab@@UAEXXZ @ 1368 NONAME
	 ?CommitTab@CNewProjectDialogTab@@UAEXXZ @ 1369 NONAME
	 ?CommitTab@CNewTemplateDialogTab@@UAEXXZ @ 1370 NONAME
	 ?CommitTab@CNewWorkspaceDialogTab@@UAEXXZ @ 1371 NONAME
	 ?CommitTab@CWorkspaceDlg@@UAEXXZ @ 1372 NONAME
	 ?Compare@CGridCellRow@@UBEHPBVCGridRow@@@Z @ 1373 NONAME
	 ?Compare@CGridRow@@UBEHPBV1@@Z @ 1374 NONAME
	 ?Compare@CHelpKeyGridRow@@UBEHPBVCGridRow@@@Z @ 1375 NONAME
	 ?CompareData@CTreeCtl@@UAEHPBVCNode@@0@Z @ 1376 NONAME
	 ?CompareItem@CFontNameCombo@@UAEHPAUtagCOMPAREITEMSTRUCT@@@Z @ 1377 NONAME
	 ?CompareItem@CPropListBox@@UAEHPAUtagCOMPAREITEMSTRUCT@@@Z @ 1378 NONAME
	 ?CompareNodes@CTreeCtl@@QAEHPBVCNode@@0@Z @ 1379 NONAME
	 ?CompareRowIDs@@YAHPBX0@Z @ 1380 NONAME
	 ?CompareSlob@CProjSlob@@UAEHPAVCSlob@@@Z @ 1381 NONAME
	 ?CompileAction@@YAIHIEEPAUpatType@@@Z @ 1382 NONAME
	 ?CompileRegEx@FINDREPLACEDISK@@QAEHW4reSyntax@@@Z @ 1383 NONAME
	 ?ContainsMenu@CBMenuPopup@@QAEHH@Z @ 1384 NONAME
	 ?ContainsMenu@CBMenuPopup@@QAEHI@Z @ 1385 NONAME
	 ?ContainsVal@CEnum@@UAEHH@Z @ 1386 NONAME
	 ?ContainsVal@CLocalizedEnum@@UAEHH@Z @ 1387 NONAME
	 ?ContextSensitiveHelp@XMyOleIPSite@CIPCompContainerItem@@UAGJH@Z @ 1388 NONAME
	 ?ContextSensitiveHelp@XOleInPlaceSite@CDocObjectContainerItem@@UAGJH@Z @ 1389 NONAME
	 ?ContinueModal@CBMenuPopup@@UAEHXZ @ 1390 NONAME
	 ?ConvertVariantToBOOL@@YAHABUtagVARIANT@@AAHHH@Z @ 1391 NONAME
	 ?ConvertVariantToCString@@YAHABUtagVARIANT@@AAVCString@@V2@H@Z @ 1392 NONAME
	 ?ConvertVariantToLong@@YAHABUtagVARIANT@@AAJJH@Z @ 1393 NONAME
	 ?Copy@CClipboardSlob@@QAEXPAVCSlob@@@Z @ 1394 NONAME
	 ?Copy@TBBUTTON_EXTRA@@QAEXPAU1@@Z @ 1395 NONAME
	 ?CopyBuffer@CFileOpenReturn@@QAEXPAD@Z @ 1396 NONAME
	 ?CopyInfo@CProductInfo@@QBEHPAD00@Z @ 1397 NONAME
	 ?CopyProps@CSlob@@UAEXPAV1@@Z @ 1398 NONAME
	 ?CountTiles@CCustomBar@@IAEHXZ @ 1399 NONAME
	 ?Create@C3dDialog@@UAEHPBDPAVCWnd@@@Z @ 1400 NONAME
	 ?Create@C3dDialogBar@@QAEHPAVCWnd@@PBDII@Z @ 1401 NONAME
	 ?Create@CApplication@@SAPAV1@XZ @ 1402 NONAME
	 ?Create@CASBar@@QAEHPAVCDockManager@@IPBUtagRECT@@PBD@Z @ 1403 NONAME
	 ?Create@CASBar@@QAEHPAVCWnd@@PAVCDockManager@@KPAUTOOLBARINIT@@PAIPAXHPAUDOCKINIT@@@Z @ 1404 NONAME
	 ?Create@CAutoProjects@@SAPAV1@XZ @ 1405 NONAME
	 ?Create@CBContextPopupMenu@@QAEXPAUPOPDESC@@@Z @ 1406 NONAME
	 ?Create@CBitmapWnd@@QAEHPBDKABUtagRECT@@PAVCWnd@@I@Z @ 1407 NONAME
	 ?Create@CBMenuItem@@QAEHPAVCBMenuPopup@@IVCString@@@Z @ 1408 NONAME
	 ?Create@CBMenuPopup@@MAEHPAVCWnd@@UtagPOINT@@HPAVCRect@@@Z @ 1409 NONAME
	 ?Create@CBorderBar@@QAEHPAVCWnd@@PAVCDockManager@@KPAUHWND__@@IHPAUDOCKINIT@@@Z @ 1410 NONAME
	 ?Create@CButtonDragListBox@@QAEHKABUtagRECT@@PAVCWnd@@I@Z @ 1411 NONAME
	 ?Create@CCheckList@@QAEHKABUtagRECT@@PAVCWnd@@I@Z @ 1412 NONAME
	 ?Create@CContextPopupMenu@@QAEXPAUPOPDESC@@@Z @ 1413 NONAME
	 ?Create@CCustomBar@@QAEHKABVCRect@@PAVCWnd@@I@Z @ 1414 NONAME
	 ?Create@CCustomDialog@@UAEHXZ @ 1415 NONAME
	 ?Create@CDockCombo@@QAEHKABUtagRECT@@PAVCWnd@@I@Z @ 1416 NONAME
	 ?Create@CDockEdit@@QAEHKABUtagRECT@@PAVCWnd@@I@Z @ 1417 NONAME
	 ?Create@CDockManager@@QAEHPAVCFrameWnd@@PAVCWnd@@PAV1@@Z @ 1418 NONAME
	 ?Create@CDockWnd@@QAEHPAVCFrameWnd@@IPAVCDockManager@@@Z @ 1419 NONAME
	 ?Create@CDockWorker@@QAEHPAVCDockManager@@PAVCWnd@@H@Z @ 1420 NONAME
	 ?Create@CDropControl@@UAEHKABUtagRECT@@PAVCWnd@@IPAUCCreateContext@@@Z @ 1421 NONAME
	 ?Create@CFindCombo@@QAEHKABUtagRECT@@PAVCWnd@@I@Z @ 1422 NONAME
	 ?Create@CFloatingFrameBar@@QAEHPAVCWnd@@I@Z @ 1423 NONAME
	 ?Create@CGhostListBox@@QAEHKABUtagRECT@@PAVCWnd@@IPAVCDropControl@@@Z @ 1424 NONAME
	 ?Create@CGridWnd@@QAEHKABUtagRECT@@PAVCWnd@@I@Z @ 1425 NONAME
	 ?Create@CHelpKeyWnd@@UAEHXZ @ 1426 NONAME
	 ?Create@CIPCompSlob@@UAEHXZ @ 1427 NONAME
	 ?Create@CMDIChildDock@@QAEHPBD0PAVCWnd@@PAVCMDIFrameWnd@@VCRect@@@Z @ 1428 NONAME
	 ?Create@COldStatusBar@@QAEHPAVCWnd@@KI@Z @ 1429 NONAME
	 ?Create@COldToolBar@@QAEHPAVCWnd@@KI@Z @ 1430 NONAME
	 ?Create@COleAllPage@@UAEHIPAVCWnd@@@Z @ 1431 NONAME
	 ?Create@COlePage@@UAEHIPAVCWnd@@@Z @ 1432 NONAME
	 ?Create@COLEStorage@@QAEXPBD@Z @ 1433 NONAME
	 ?Create@CPaletteWnd@@QAEHPBD0PAVCWnd@@1VCRect@@IH@Z @ 1434 NONAME
	 ?Create@CPath@@QAEHPBD@Z @ 1435 NONAME
	 ?Create@CProductInfo@@QAEHPAUHINSTANCE__@@II@Z @ 1436 NONAME
	 ?Create@CSheetWnd@@QAEHXZ @ 1437 NONAME
	 ?Create@CSlobPage@@UAEHIPAVCWnd@@@Z @ 1438 NONAME
	 ?Create@CTabbedDialog@@QAEHXZ @ 1439 NONAME
	 ?Create@CTap@@UAEHPBDABUtagRECT@@PAVCWnd@@IPAUCCreateContext@@@Z @ 1440 NONAME
	 ?Create@CTipFileQueue@@QAEHH@Z @ 1441 NONAME
	 ?Create@CToolbarDialog@@UAEHXZ @ 1442 NONAME
	 ?Create@CToolbarEditCombo@@QAEHKABUtagRECT@@PAVCWnd@@I@Z @ 1443 NONAME
	 ?Create@TBBUTTON_EXTRA@@QAEXPAUHWND__@@PAVCString@@PAUHBITMAP__@@@Z @ 1444 NONAME
	 ?CreateBarBitmap@@YAPAUHBITMAP__@@PAVCWnd@@IPBUtagRECT@@VCSize@@2@Z @ 1445 NONAME
	 ?CreateButtonBitmap@@YAPAUHBITMAP__@@PAVCWnd@@IPBUtagRECT@@PAVCBitmap@@PBDH@Z @ 1446 NONAME
	 ?CreateButtonBitmap@C3dBitmapButton@@MAEPAUHBITMAP__@@IPBUtagRECT@@PAVCBitmap@@PBD@Z @ 1447 NONAME
	 ?CreateButtonBitmap@CMenuBtn@@MAEPAUHBITMAP__@@IPBUtagRECT@@PAVCBitmap@@PBD@Z @ 1448 NONAME
	 ?CreateButtons@CTabbedDialog@@MAEXXZ @ 1449 NONAME
	 ?CreateCASBar@CToolGroup@@QAEPAVCASBar@@PAVCWnd@@PAVCDockManager@@@Z @ 1450 NONAME
	 ?CreateCells@CGridCellRow@@UAEHXZ @ 1451 NONAME
	 ?CreateChildren@CPropListBox@@QAEHXZ @ 1452 NONAME
	 ?CreateCmdBarButtonMask@@YAXHVCPoint@@HHABUtagSIZE@@1PAUHDC__@@2@Z @ 1453 NONAME
	 ?CreateCommandTransfer@CToolCustomizer@@IAEPAUTRANSFER_TBBUTTON@@HPAVCToolBarProxy@@@Z @ 1454 NONAME
	 ?CreateControl@CGridControlRow@@QAEHW4GRID_CONTROL_TYPE@@HK@Z @ 1455 NONAME
	 ?CreateCustomizeToolbars@CAppToolGroups@@QAEXPAVCWnd@@PAVCDockManager@@PAVCObArray@@PAVCStringArray@@PAVCWordArray@@@Z @ 1456 NONAME
	 ?CreateDIBPalette@@YAPAVCPalette@@PAD@Z @ 1457 NONAME
	 ?CreateDragger@CSlob@@UAEPAVCSlobDragger@@PAV1@VCPoint@@@Z @ 1458 NONAME
	 ?CreateDynamic@CBMenuItem@@QAEHPAVCBMenuPopup@@IVCString@@HPAUHBITMAP__@@@Z @ 1459 NONAME
	 ?CreateErrorContext@@YAPAUTERROR@@III@Z @ 1460 NONAME
	 ?CreateEx@CGridWnd@@QAEHKKABUtagRECT@@PAVCWnd@@I@Z @ 1461 NONAME
	 ?CreateFindCombo@@YAPAUHWND__@@KPAUtagRECT@@PAU1@I@Z @ 1462 NONAME
	 ?CreateFromCurrent@CDir@@QAEHXZ @ 1463 NONAME
	 ?CreateFromDirAndFilename@CPath@@QAEHABVCDir@@PBD@Z @ 1464 NONAME
	 ?CreateFromDirAndRelative@CPath@@QAEHABVCDir@@PBD@Z @ 1465 NONAME
	 ?CreateFromExternalFile@CDocObjectContainerItem@@UAEHPBDU_GUID@@@Z @ 1466 NONAME
	 ?CreateFromPath@CDir@@QAEHABVCPath@@@Z @ 1467 NONAME
	 ?CreateFromPath@CDir@@QAEHPBD@Z @ 1468 NONAME
	 ?CreateFromStringEx@CDir@@QAEHPBDH@Z @ 1469 NONAME
	 ?CreateIndirect@C3dDialogBar@@QAEHPBXPAVCWnd@@II@Z @ 1470 NONAME
	 ?CreateListBox@CTreeCtl@@UAEXXZ @ 1471 NONAME
	 ?CreateLogicalDib@GLOBAL_DATA@@SAPAXPAUHBITMAP__@@GPAUHPALETTE__@@@Z @ 1472 NONAME
	 ?CreateMask@COldToolBar@@IAEXHVCPoint@@HH@Z @ 1473 NONAME
	 ?CreateMask@CTTBitmap@@QAEHXZ @ 1474 NONAME
	 ?CreateMenu@CBMenuPopup@@QAEHXZ @ 1475 NONAME
	 ?CreateNewFromClsid@CIPCompContainerItem@@QAEHU_GUID@@PAUIStorage@@@Z @ 1476 NONAME
	 ?CreateNewSubPopup@CBContextPopupMenu@@SAPAV1@PAV1@@Z @ 1477 NONAME
	 ?CreateNewSubPopup@CContextPopupMenu@@SAPAV1@PAV1@@Z @ 1478 NONAME
	 ?CreateNewUntitledFile@CDocObjectContainerItem@@UAEHU_GUID@@@Z @ 1479 NONAME
	 ?CreateNode@CTreeCtl@@UAEPAVCNode@@K@Z @ 1480 NONAME
	 ?CreateObject@CApplication@@SGPAVCObject@@XZ @ 1481 NONAME
	 ?CreateObject@CAutoObj@@SGPAVCObject@@XZ @ 1482 NONAME
	 ?CreateObject@CAutoProjects@@SGPAVCObject@@XZ @ 1483 NONAME
	 ?CreateObject@CAutoWindowObj@@SGPAVCObject@@XZ @ 1484 NONAME
	 ?CreateObject@CDockablePartView@@SGPAVCObject@@XZ @ 1485 NONAME
	 ?CreateObject@CDockManager@@SGPAVCObject@@XZ @ 1486 NONAME
	 ?CreateObject@CDockWnd@@SGPAVCObject@@XZ @ 1487 NONAME
	 ?CreateObject@CDockWorker@@SGPAVCObject@@XZ @ 1488 NONAME
	 ?CreateObject@CDocObjectContainerItem@@SGPAVCObject@@XZ @ 1489 NONAME
	 ?CreateObject@CDocObjectDoc@@SGPAVCObject@@XZ @ 1490 NONAME
	 ?CreateObject@CDocObjectFrame@@SGPAVCObject@@XZ @ 1491 NONAME
	 ?CreateObject@CDocObjectView@@SGPAVCObject@@XZ @ 1492 NONAME
	 ?CreateObject@CIPCompContainerItem@@SGPAVCObject@@XZ @ 1493 NONAME
	 ?CreateObject@CIPCompDoc@@SGPAVCObject@@XZ @ 1494 NONAME
	 ?CreateObject@CIPCompView@@SGPAVCObject@@XZ @ 1495 NONAME
	 ?CreateObject@CMultiSlob@@SGPAVCObject@@XZ @ 1496 NONAME
	 ?CreateObject@CPartDoc@@SGPAVCObject@@XZ @ 1497 NONAME
	 ?CreateObject@CPartFrame@@SGPAVCObject@@XZ @ 1498 NONAME
	 ?CreateObject@CPartView@@SGPAVCObject@@XZ @ 1499 NONAME
	 ?CreateObject@CSlob@@SGPAVCObject@@XZ @ 1500 NONAME
	 ?CreatePopup@CBMenuItem@@QAEHPAVCBMenuPopup@@0VCString@@@Z @ 1501 NONAME
	 ?CreatePopup@CBMenuItem@@QAEHPAVCBMenuPopup@@IVCString@@@Z @ 1502 NONAME
	 ?CreatePopupMenu@CBMenuPopup@@QAEHPAVCWnd@@@Z @ 1503 NONAME
	 ?CreatePropertyBrowser@@YAHXZ @ 1504 NONAME
	 ?CreateSeparator@CBMenuItem@@QAEHXZ @ 1505 NONAME
	 ?CreateSeparatorTransfer@CToolCustomizer@@SAPAUTRANSFER_TBBUTTON@@XZ @ 1506 NONAME
	 ?CreateSingleBitmap@CCustomBarProxy@@UAEPAUHBITMAP__@@H@Z @ 1507 NONAME
	 ?CreateSingleBitmap@CMenuPopupProxy@@UAEPAUHBITMAP__@@H@Z @ 1508 NONAME
	 ?CreateStorage@COLEStorage@@QAEXPBDPAV1@@Z @ 1509 NONAME
	 ?CreateStream@COLEStorage@@QAEXPBDPAVCOleStreamFile@@@Z @ 1510 NONAME
	 ?CreateTemporaryName@CDir@@QAEHXZ @ 1511 NONAME
	 ?CreateTemporaryName@CPath@@QAEHABVCDir@@H@Z @ 1512 NONAME
	 ?CreateToolbarEditCombo@@YAPAUHWND__@@PAVCToolbarEditCombo@@KPAUtagRECT@@PAU1@I@Z @ 1513 NONAME
	 ?CreateToolbars@CCustomDialog@@IAEXXZ @ 1514 NONAME
	 ?CurrentSlobDestroyed@CSheetWnd@@QAEXXZ @ 1515 NONAME
	 ?DataTypeFromVT@COleAllPage@@IAE?AW4DataType@@PAUtagTYPEDESC@@PAUITypeInfo@@@Z @ 1516 NONAME
	 ?Deactivate@CCustomDialog@@UAEXPAVCTabbedDialog@@@Z @ 1517 NONAME
	 ?Deactivate@CDlgTab@@UAEXPAVCTabbedDialog@@@Z @ 1518 NONAME
	 ?Deactivate@CNewFileDialogTab@@UAEXPAVCTabbedDialog@@@Z @ 1519 NONAME
	 ?Deactivate@CNewOtherDocDialogTab@@UAEXPAVCTabbedDialog@@@Z @ 1520 NONAME
	 ?Deactivate@CNewProjectDialogTab@@UAEXPAVCTabbedDialog@@@Z @ 1521 NONAME
	 ?Deactivate@CNewTemplateDialogTab@@UAEXPAVCTabbedDialog@@@Z @ 1522 NONAME
	 ?Deactivate@CNewWorkspaceDialogTab@@UAEXPAVCTabbedDialog@@@Z @ 1523 NONAME
	 ?Deactivate@CToolbarDialog@@UAEXPAVCTabbedDialog@@@Z @ 1524 NONAME
	 ?DeactivateAndUndo@XMyOleIPSite@CIPCompContainerItem@@UAGJXZ @ 1525 NONAME
	 ?DeactivateAndUndo@XOleInPlaceSite@CDocObjectContainerItem@@UAGJXZ @ 1526 NONAME
	 ?DeactivateDraggableCustomizePage@CTheApp@@QAEXPAVCWnd@@@Z @ 1527 NONAME
	 ?DeactivatePacket@CTheApp@@QAEHXZ @ 1528 NONAME
	 ?DeactivatePropertyBrowser@@YAXXZ @ 1529 NONAME
	 ?DeallocateEntry@CPickList@@IAEXW4PickListType@@I@Z @ 1530 NONAME
	 ?DeferActivation@CIPCompView@@UAEHXZ @ 1531 NONAME
	 ?DeferActivation@CPartView@@UAEHXZ @ 1532 NONAME
	 ?DeferHideSubPopup@CBMenuPopup@@QAEXXZ @ 1533 NONAME
	 ?DeferScrollMenuDown@CBMenuPopup@@QAEXH@Z @ 1534 NONAME
	 ?DeferScrollMenuUp@CBMenuPopup@@QAEXH@Z @ 1535 NONAME
	 ?DeferShowSubPopup@CBMenuPopup@@QAEXH@Z @ 1536 NONAME
	 ?Delete@CMultiSlob@@UAEHHPAPAVCSlob@@@Z @ 1537 NONAME
	 ?DeleteAll@CBMenuPopup@@QAEXXZ @ 1538 NONAME
	 ?DeleteBindPtr@COleAllPage@@IAEXPAUITypeInfo@@PAW4tagDESCKIND@@PATtagBINDPTR@@@Z @ 1539 NONAME
	 ?DeleteButton@CASBar@@UAEXHH@Z @ 1540 NONAME
	 ?DeleteButton@CCustomBar@@UAEXHH@Z @ 1541 NONAME
	 ?DeleteButton@CCustomBarProxy@@UAEXHH@Z @ 1542 NONAME
	 ?DeleteButton@CMenuPopupProxy@@UAEXHH@Z @ 1543 NONAME
	 ?DeleteCollection@CAutoDocuments@@QAEXXZ @ 1544 NONAME
	 ?DeleteCollection@CAutoWindows@@IAEXXZ @ 1545 NONAME
	 ?DeleteCProp@CProp@@SAXPAV1@@Z @ 1546 NONAME
	 ?DeleteGridRows@CHelpKeyWnd@@QAEXXZ @ 1547 NONAME
	 ?DeleteMenu@CBMenuPopup@@QAEHII@Z @ 1548 NONAME
	 ?DeleteNode@CTreeCtl@@UAEXPAVCNode@@@Z @ 1549 NONAME
	 ?DeleteOverspillFile@CFileChange@@IAEXPAVCFileData@@@Z @ 1550 NONAME
	 ?DeleteRegData@@YAHPBD0@Z @ 1551 NONAME
	 ?DeleteSelection@CToolCustomizer@@QAEHH@Z @ 1552 NONAME
	 ?DeleteString@CStringListGridWnd@@QAEHH@Z @ 1553 NONAME
	 ?DeleteTool@CToolList@@QAEXH@Z @ 1554 NONAME
	 ?DeleteUndoAction@CSlob@@UAEXPAVCSlobSequence@@I@Z @ 1555 NONAME
	 ?DeparentWindow@CDockWorker@@QAEXPAVCWnd@@PAVCDockManager@@@Z @ 1556 NONAME
	 ?Deselect@CGridWnd@@QAEXPAVCGridElement@@@Z @ 1557 NONAME
	 ?Deselect@CSlobWnd@@QAEXPAVCSlob@@@Z @ 1558 NONAME
	 ?DesiredHeight@CTabRow@@QAEHPAVCDC@@@Z @ 1559 NONAME
	 ?DeskWnd@CDockWorker@@IAEHABVCRect@@@Z @ 1560 NONAME
	 ?Destroy@CApplication@@QAEXXZ @ 1561 NONAME
	 ?Destroy@TBBUTTON_EXTRA@@QAEXXZ @ 1562 NONAME
	 ?DestroyAll@CTheApp@@QAEXI@Z @ 1563 NONAME
	 ?DestroyArgs@?$CTypedEventEntry@UIApplicationEvents@@@@UAEXXZ @ 1564 NONAME
	 ?DestroyContent@CToolList@@QAEXXZ @ 1565 NONAME
	 ?DestroyErrorContext@@YAXPAUTERROR@@@Z @ 1566 NONAME
	 ?DestroyFile@@YAHPBD@Z @ 1567 NONAME
	 ?DestroyPropertyBrowser@@YAXXZ @ 1568 NONAME
	 ?DestroySingleBitmap@CCustomBarProxy@@UAEXHPAUHBITMAP__@@@Z @ 1569 NONAME
	 ?DestroySingleBitmap@CMenuPopupProxy@@UAEXHPAUHBITMAP__@@@Z @ 1570 NONAME
	 ?DestroyToolbars@CCustomDialog@@IAEXXZ @ 1571 NONAME
	 ?DestroyWindow@CDockWorker@@QAEXH@Z @ 1572 NONAME
	 ?DestroyWindow@CMainFrame@@UAEHXZ @ 1573 NONAME
	 ?DestroyWindow@COlePage@@UAEHXZ @ 1574 NONAME
	 ?Detach@CImageWell@@QAEPAUHBITMAP__@@XZ @ 1575 NONAME
	 ?DetachDispatch@CMiniOleDispatchDriver@@QAEPAUIDispatch@@XZ @ 1576 NONAME
	 ?DetermineBuilderType@COleAllPage@@IAEXJPAVCPropItem@@@Z @ 1577 NONAME
	 ?DevStudioLoadStreamFromRegistry@@YAJPBD0ABU_GUID@@1PAPAXPAUIUnknown@@W4tagCLSCTX@@@Z @ 1578 NONAME
	 ?DevStudioPersistStreamToRegistry@@YAJPAUIUnknown@@PBD1@Z @ 1579 NONAME
	 ?DIBHeight@@YAKPAD@Z @ 1580 NONAME
	 ?DIBNumColors@@YAGPAD@Z @ 1581 NONAME
	 ?DibNumColors@GLOBAL_DATA@@SAGPAX@Z @ 1582 NONAME
	 ?DIBWidth@@YAKPAD@Z @ 1583 NONAME
	 ?DirOpenHookProc@CDirChooser@@KGIPAUHWND__@@IIJ@Z @ 1584 NONAME
	 ?DirtyNode@CTreeCtl@@QAEXHGH@Z @ 1585 NONAME
	 ?Disable@CAutosave@@QAEHXZ @ 1586 NONAME
	 ?DisabledTextOut@GLOBAL_DATA@@QAEXPAVCDC@@PBVCRect@@ABVCString@@I@Z @ 1587 NONAME
	 ?DisableUI@CShellAutomationState@@UAEXXZ @ 1588 NONAME
	 ?DiscardFrom@COleUndoManager@@UAGJPAUIOleUndoUnit@@@Z @ 1589 NONAME
	 ?DiscardUndoState@XMyOleIPSite@CIPCompContainerItem@@UAGJXZ @ 1590 NONAME
	 ?DiscardUndoState@XOleInPlaceSite@CDocObjectContainerItem@@UAGJXZ @ 1591 NONAME
	 ?DisplayBuilder@CBldWizSelectDlg@@AAEPAU_TREEITEM@@PBDPAU2@@Z @ 1592 NONAME
	 ?DisplayButtonMenu@CToolCustomizer@@QAEHIVCPoint@@@Z @ 1593 NONAME
	 ?DisplayCategory@CBldWizSelectDlg@@AAEPAU_TREEITEM@@PBDPAU2@@Z @ 1594 NONAME
	 ?DisplayOutputFromConsole@CConsoleSpawner@@QAEXPAD@Z @ 1595 NONAME
	 ?DisplayUI@CShellAutomationState@@UAEHXZ @ 1596 NONAME
	 ?DisposeOfPattern@FINDREPLACEDISK@@QAEXXZ @ 1597 NONAME
	 ?DkDocObjectMode@@YAHH@Z @ 1598 NONAME
	 ?DkEnsureHidden@@YAHI@Z @ 1599 NONAME
	 ?DkGetDockState@@YAHXZ @ 1600 NONAME
	 ?DkInfoData@@YAPAXIPAUDOCKINIT@@@Z @ 1601 NONAME
	 ?DkLockWorker@@YAXH@Z @ 1602 NONAME
	 ?DkPreHandleMessage@@YAHPAUHWND__@@IIJPAJ@Z @ 1603 NONAME
	 ?DkRecalcBorders@@YAXPAVCWnd@@@Z @ 1604 NONAME
	 ?DkRegisterToolbar@@YAHPAUDOCKINIT@@PAUTOOLBARINIT@@PAI@Z @ 1605 NONAME
	 ?DkRegisterWnd@@YAHPAUHWND__@@PAUDOCKINIT@@@Z @ 1606 NONAME
	 ?DkSetDockState@@YAXHH@Z @ 1607 NONAME
	 ?DkShowManager@@YAXHW4UPDATE_SHOW@@@Z @ 1608 NONAME
	 ?DkToolbarData@@YAPAXPBUTOOLBARINIT@@PBI@Z @ 1609 NONAME
	 ?DkUpdateAvailableWnds@@YAXH@Z @ 1610 NONAME
	 ?DkWAssociate@@YAXII@Z @ 1611 NONAME
	 ?DkWEmbed@@YAPAUHWND__@@IPAU1@@Z @ 1612 NONAME
	 ?DkWGetDock@@YA?AW4DOCKPOS@@I@Z @ 1613 NONAME
	 ?DkWGetMaxState@@YA?AW4MAX_STATE@@I@Z @ 1614 NONAME
	 ?DkWGetTitle@@YAXIAAVCString@@@Z @ 1615 NONAME
	 ?DkWHandleDockingCmd@@YAXIHPAVCCmdUI@@@Z @ 1616 NONAME
	 ?DkWMapDockingCmd@@YAXII@Z @ 1617 NONAME
	 ?DkWMaximizeRestore@@YAXI@Z @ 1618 NONAME
	 ?DkWMoveWindow@@YAXIW4DOCKPOS@@PBUtagRECT@@@Z @ 1619 NONAME
	 ?DkWRemove@@YAXI@Z @ 1620 NONAME
	 ?DkWSetTitle@@YAXIABVCString@@@Z @ 1621 NONAME
	 ?DkWShowWindow@@YAXIH@Z @ 1622 NONAME
	 ?DkWToggleMDIState@@YAXI@Z @ 1623 NONAME
	 ?Do@COleParentUndoUnit@@UAGJPAUIOleUndoManager@@@Z @ 1624 NONAME
	 ?Do@COleUndoUnit@@UAGJPAUIOleUndoManager@@@Z @ 1625 NONAME
	 ?DoBldSysCompRegister@CPackage@@UAEHPAVCProjComponentMgr@@KK@Z @ 1626 NONAME
	 ?DoButtonMove@CToolCustomizer@@QAEHVCPoint@@PAVCToolBarProxy@@HPAHW4MOVETYPE@1@H@Z @ 1627 NONAME
	 ?DoButtonSize@CToolCustomizer@@QAEXVCPoint@@PAVCToolBarProxy@@H@Z @ 1628 NONAME
	 ?DoCheckFile@CFileChange@@IAEXPAVCFileData@@@Z @ 1629 NONAME
	 ?DoCheckOverspillFiles@CFileChange@@IAEXXZ @ 1630 NONAME
	 ?DockTranspose@@YAXW4DOCKPOS@@PAUtagPOINT@@@Z @ 1631 NONAME
	 ?DockTranspose@@YAXW4DOCKPOS@@PAUtagRECT@@@Z @ 1632 NONAME
	 ?DockTranspose@@YAXW4DOCKPOS@@PAUtagSIZE@@@Z @ 1633 NONAME
	 ?DockWnd@CDockWorker@@IAEHPAUDOCKPLACEMENT@@H@Z @ 1634 NONAME
	 ?DoClose@CDocObjectContainerItem@@UAEXXZ @ 1635 NONAME
	 ?DoClose@CDocObjectDoc@@UAEXXZ @ 1636 NONAME
	 ?DoClose@CIPCompContainerItem@@UAEXXZ @ 1637 NONAME
	 ?DoClose@CIPCompDoc@@MAEXXZ @ 1638 NONAME
	 ?DoClose@CIPCompFrameHook@@QAEXXZ @ 1639 NONAME
	 ?DocObjectMode@CDockManager@@QAEHH@Z @ 1640 NONAME
	 ?DoCommand@CTipFile@@IAEXABVCString@@0@Z @ 1641 NONAME
	 ?DoCopy@CToolsGrid@@IAEXXZ @ 1642 NONAME
	 ?DoCustomizeDialog@CTheApp@@QAEXIPBD@Z @ 1643 NONAME
	 ?DoCut@CToolsGrid@@IAEXXZ @ 1644 NONAME
	 ?DoDataExchange@CCustomButtonDlg@@MAEXPAVCDataExchange@@@Z @ 1645 NONAME
	 ?DoDataExchange@CCustomDialog@@MAEXPAVCDataExchange@@@Z @ 1646 NONAME
	 ?DoDataExchange@CDialogArg@@MAEXPAVCDataExchange@@@Z @ 1647 NONAME
	 ?DoDataExchange@CFindStringDlg@@MAEXPAVCDataExchange@@@Z @ 1648 NONAME
	 ?DoDataExchange@CFontColorDlg@@MAEXPAVCDataExchange@@@Z @ 1649 NONAME
	 ?DoDataExchange@CGoToDialog@@MAEXPAVCDataExchange@@@Z @ 1650 NONAME
	 ?DoDataExchange@CKeyCustDlg@@MAEXPAVCDataExchange@@@Z @ 1651 NONAME
	 ?DoDataExchange@CNewBarDialog@@MAEXPAVCDataExchange@@@Z @ 1652 NONAME
	 ?DoDataExchange@CNewFileDialogTab@@MAEXPAVCDataExchange@@@Z @ 1653 NONAME
	 ?DoDataExchange@CNewOtherDocDialogTab@@MAEXPAVCDataExchange@@@Z @ 1654 NONAME
	 ?DoDataExchange@CNewProjectDialogTab@@MAEXPAVCDataExchange@@@Z @ 1655 NONAME
	 ?DoDataExchange@CNewTemplateDialogTab@@MAEXPAVCDataExchange@@@Z @ 1656 NONAME
	 ?DoDataExchange@CNewWorkspaceDialogTab@@MAEXPAVCDataExchange@@@Z @ 1657 NONAME
	 ?DoDataExchange@COpenDocsDlg@@MAEXPAVCDataExchange@@@Z @ 1658 NONAME
	 ?DoDataExchange@CTipDlg@@MAEXPAVCDataExchange@@@Z @ 1659 NONAME
	 ?DoDataExchange@CToolbarDialog@@MAEXPAVCDataExchange@@@Z @ 1660 NONAME
	 ?DoDataExchange@CWnd@@MAEXPAVCDataExchange@@@Z @ 1661 NONAME
	 ?DoDataExchange@CWorkspaceDlg@@MAEXPAVCDataExchange@@@Z @ 1662 NONAME
	 ?DoDelete@CStringListGridWnd@@UAEXXZ @ 1663 NONAME
	 ?DoDrag@CSlob@@UAEXPAV1@PAVCSlobDragger@@VCPoint@@@Z @ 1664 NONAME
	 ?DoDragDrop@CGridWnd@@UAEXVCPoint@@@Z @ 1665 NONAME
	 ?DoDragDrop@CStringListGridWnd@@UAEXVCPoint@@@Z @ 1666 NONAME
	 ?DoDrop@CSlob@@UAEXPAV1@PAVCSlobDragger@@@Z @ 1667 NONAME
	 ?DoesBuilderExist@CIPCompDoc@@UAEJABU_GUID@@@Z @ 1668 NONAME
	 ?DoesBuilderExist@XBuilderWizardManager@CBuilderWizardManager@@UAGJABU_GUID@@@Z @ 1669 NONAME
	 ?DoesBuilderExist@XIPCompBuilderWizardManager@CIPCompBuilderWizardManager@@UAGJABU_GUID@@@Z @ 1670 NONAME
	 ?DoesCommandNameExist@CTheApp@@QAEHPBD@Z @ 1671 NONAME
	 ?DoesDevCategoryExist@CBuilderWizardManager@@IAEHPBDPAPAUHKEY__@@@Z @ 1672 NONAME
	 ?DoesIntrinsicBuilderExist@CTheApp@@QAEJABU_GUID@@@Z @ 1673 NONAME
	 ?DoesSupportInternalSelect@CIPCompDoc@@UAEXPAK@Z @ 1674 NONAME
	 ?DoesTypeInfoHasPathProperties@COleAllPage@@IAEHPAUITypeInfo@@@Z @ 1675 NONAME
	 ?DoFileChange@CFileChange@@IAEXI@Z @ 1676 NONAME
	 ?DoFind@CPartView@@IAEHXZ @ 1677 NONAME
	 ?DoGoToDialog@@YAXHPBD@Z @ 1678 NONAME
	 ?DoHelp@CFindCombo@@QAEHXZ @ 1679 NONAME
	 ?DoHelpContextMenu@@YAXPAVCWnd@@IVCPoint@@@Z @ 1680 NONAME
	 ?DoHelpInfo@@YAHPAVCWnd@@IPAUtagHELPINFO@@@Z @ 1681 NONAME
	 ?DoInitDialog@CGoToDialog@@AAEHXZ @ 1682 NONAME
	 ?DoLButtonDown@CBMenuPopup@@QAEHIVCPoint@@@Z @ 1683 NONAME
	 ?DoLButtonUp@CBMenuPopup@@QAEIIVCPoint@@@Z @ 1684 NONAME
	 ?DoMessageBox@CErrorContext@@UAEHW4tagMsgBoxTypes@@II@Z @ 1685 NONAME
	 ?DoMessageBox@CMessageBox@@SAHPBD00GHHPAKPAVCWnd@@@Z @ 1686 NONAME
	 ?DoMessageBox@CStorageEC@@UAEHW4tagMsgBoxTypes@@II@Z @ 1687 NONAME
	 ?DoMessageBox@CTheApp@@UAEHPBDII@Z @ 1688 NONAME
	 ?DoModal@C3dDialog@@UAEHXZ @ 1689 NONAME
	 ?DoModal@C3dFileDialog@@UAEHXZ @ 1690 NONAME
	 ?DoModal@C3dFontDialog@@UAEHXZ @ 1691 NONAME
	 ?DoModal@CAddFilesDialog@@UAEHXZ @ 1692 NONAME
	 ?DoModal@CBMenuPopup@@QAEXHH@Z @ 1693 NONAME
	 ?DoModal@CDirChooser@@UAEHXZ @ 1694 NONAME
	 ?DoModal@CMessageBox@@UAEHXZ @ 1695 NONAME
	 ?DoModal@CTabbedDialog@@QAEHXZ @ 1696 NONAME
	 ?DoMouseMove@CBMenuPopup@@QAEHIVCPoint@@@Z @ 1697 NONAME
	 ?DoMove@CDockWorker@@QAEXVCPoint@@@Z @ 1698 NONAME
	 ?DoMove@CStringListGridWnd@@UAEXH@Z @ 1699 NONAME
	 ?DoMove@CToolsGrid@@MAEXH@Z @ 1700 NONAME
	 ?Done@CBMenuPopup@@QAEXI@Z @ 1701 NONAME
	 ?DoOpenItem@CTreeCtl@@UAEXH@Z @ 1702 NONAME
	 ?DoOptionsDialog@CTheApp@@QAEXI@Z @ 1703 NONAME
	 ?DoPageIntersection@COlePage@@SAJPAUISpecifyPropertyPages@@PAUtagCAUUID@@@Z @ 1704 NONAME
	 ?DoPaint@CCustomBar@@MAEXPAVCDC@@@Z @ 1705 NONAME
	 ?DoPaint@COldStatusBar@@MAEXPAVCDC@@@Z @ 1706 NONAME
	 ?DoPaint@COldToolBar@@MAEXPAVCDC@@@Z @ 1707 NONAME
	 ?DoPaint@CSushiBar@@UAEXPAVCDC@@@Z @ 1708 NONAME
	 ?DoPaste@CToolsGrid@@IAEXXZ @ 1709 NONAME
	 ?DoPromptFileOpen@CTheApp@@QAEHAAVCStringArray@@IKPAVCDocTemplate@@PAIPAH@Z @ 1710 NONAME
	 ?DoPromptFileSave@CTheApp@@QAEHAAVCString@@IKPAVCPartDoc@@PAI@Z @ 1711 NONAME
	 ?DoRedo@CSlobWnd@@UAEXXZ @ 1712 NONAME
	 ?DoRedo@CUndoSlob@@QAEXPAVCSlobWnd@@@Z @ 1713 NONAME
	 ?DoSave@CPartDoc@@UAEHPBDH@Z @ 1714 NONAME
	 ?DoSaveBeforeSpawn@@YAHXZ @ 1715 NONAME
	 ?DoScroll@CBMenuPopup@@QAEXVCPoint@@H@Z @ 1716 NONAME
	 ?DoSelchangeGoToWhat@CGoToDialog@@AAEXXZ @ 1717 NONAME
	 ?DoSize@CDockWorker@@QAEXVCPoint@@I@Z @ 1718 NONAME
	 ?DoUndo@CSlobWnd@@UAEXXZ @ 1719 NONAME
	 ?DoUndo@CUndoSlob@@QAEXPAVCSlobWnd@@@Z @ 1720 NONAME
	 ?DoUndoRedo@CUndoSlob@@AAEHPAVCSlobWnd@@@Z @ 1721 NONAME
	 ?DragCommandButton@CTheApp@@QAEXVCPoint@@I@Z @ 1722 NONAME
	 ?Draw@CBMenuItem@@QAEXPAVCDC@@QAVCRect@@@Z @ 1723 NONAME
	 ?Draw@CGridCaptionCell@@UAEXPAVCDC@@ABVCRect@@@Z @ 1724 NONAME
	 ?Draw@CGridCell@@UAEXPAVCDC@@ABVCRect@@@Z @ 1725 NONAME
	 ?Draw@CGridRow@@UAEXPAVCDC@@ABVCRect@@@Z @ 1726 NONAME
	 ?Draw@CTabRow@@QAEXPAVCDC@@@Z @ 1727 NONAME
	 ?Draw3dFrame@@YAXPAVCDC@@ABVCRect@@H@Z @ 1728 NONAME
	 ?Draw3dRect@@YAXPAVCDC@@ABVCRect@@H@Z @ 1729 NONAME
	 ?Draw3dRect@CAboutDlg@@QAEXAAVCDC@@ABVCRect@@@Z @ 1730 NONAME
	 ?DrawAddInfo@CAboutDlg@@QAE?AVCSize@@AAVCDC@@@Z @ 1731 NONAME
	 ?DrawArrow@CDropControl@@UAEXAAVCDC@@0HHH@Z @ 1732 NONAME
	 ?DrawBitmaps@C3dBitmapButton@@IAEHHPBUtagRECT@@@Z @ 1733 NONAME
	 ?DrawBitmaps@CMenuBtn@@IAEHXZ @ 1734 NONAME
	 ?DrawButton@@YAXPAVCDC@@0HABVCRect@@HH@Z @ 1735 NONAME
	 ?DrawButton@COldToolBar@@IAEHPAVCDC@@HHHIHPAVCRect@@@Z @ 1736 NONAME
	 ?DrawButtonGlyph@@YAHPAVCDC@@HHVCPoint@@HIABUtagSIZE@@2PAUHDC__@@3@Z @ 1737 NONAME
	 ?DrawCaptionButton@CBorderBar@@IAEXHPAVCDC@@H@Z @ 1738 NONAME
	 ?DrawCell@CGridCellRow@@UAEXPAVCDC@@ABVCRect@@H@Z @ 1739 NONAME
	 ?DrawCell@CGridControlRow@@UAEXPAVCDC@@ABVCRect@@H@Z @ 1740 NONAME
	 ?DrawCell@CHelpKeyGridRow@@UAEXPAVCDC@@ABVCRect@@H@Z @ 1741 NONAME
	 ?DrawCell@CStringListGridRow@@UAEXPAVCDC@@ABVCRect@@H@Z @ 1742 NONAME
	 ?DrawDiagonal@@YAXPAVCDC@@HHHH@Z @ 1743 NONAME
	 ?DrawDivider@CWidgetScrollBar@@QAEXPAVCDC@@HABVCPoint@@@Z @ 1744 NONAME
	 ?DrawDragFeedback@CToolCustomizer@@IAEXPAVCDC@@ABVCRect@@W4ORIENTATION@@H@Z @ 1745 NONAME
	 ?DrawEntireItem@CColorCombo@@QAEXPAVCDC@@PAUtagDRAWITEMSTRUCT@@@Z @ 1746 NONAME
	 ?DrawFocusChange@CColorCombo@@QAEXPAVCDC@@PAUtagDRAWITEMSTRUCT@@@Z @ 1747 NONAME
	 ?DrawFocusRect@CSheetWnd@@QAEXXZ @ 1748 NONAME
	 ?DrawFocusRect@CTabbedDialog@@IAEXXZ @ 1749 NONAME
	 ?DrawFocusRect@CTabRow@@QAEXPAVCDC@@@Z @ 1750 NONAME
	 ?DrawFrame@CTap@@QAEXAAVCDC@@PBUtagRECT@@@Z @ 1751 NONAME
	 ?DrawGlyph@CProjSlob@@UAEHPAVCDC@@PBUtagRECT@@@Z @ 1752 NONAME
	 ?DrawGlyph@CStringListGlyphGridWnd@@MAEXPAVCDC@@HVCPoint@@K@Z @ 1753 NONAME
	 ?DrawGlyph@CStringListGridWnd@@MAEXPAVCDC@@HVCPoint@@K@Z @ 1754 NONAME
	 ?DrawGrabber@CCustomBar@@IAEXPAVCDC@@@Z @ 1755 NONAME
	 ?DrawImage@CImageWell@@QAEHPAVCDC@@VCPoint@@IK@Z @ 1756 NONAME
	 ?DrawImage@CImageWell@@QAEHPAVCDC@@VCPoint@@IVCSize@@K@Z @ 1757 NONAME
	 ?DrawImage@CTTBitmap@@QAEHPAVCDC@@AAVCRect@@@Z @ 1758 NONAME
	 ?DrawIndicatorNow@CSushiBar@@QAEXIH@Z @ 1759 NONAME
	 ?DrawItem@C3dBitmapButton@@MAEXPAUtagDRAWITEMSTRUCT@@@Z @ 1760 NONAME
	 ?DrawItem@CCheckList@@MAEXPAUtagDRAWITEMSTRUCT@@@Z @ 1761 NONAME
	 ?DrawItem@CColorCombo@@UAEXPAUtagDRAWITEMSTRUCT@@@Z @ 1762 NONAME
	 ?DrawItem@CFontNameCombo@@UAEXPAUtagDRAWITEMSTRUCT@@@Z @ 1763 NONAME
	 ?DrawItem@CIconList@@MAEXPAUtagDRAWITEMSTRUCT@@@Z @ 1764 NONAME
	 ?DrawItem@CKeyListBox@@UAEXPAUtagDRAWITEMSTRUCT@@@Z @ 1765 NONAME
	 ?DrawItem@CMenuBtn@@MAEXPAUtagDRAWITEMSTRUCT@@@Z @ 1766 NONAME
	 ?DrawItem@CPropButton@@UAEXPAUtagDRAWITEMSTRUCT@@@Z @ 1767 NONAME
	 ?DrawItem@CPropListBox@@UAEXPAUtagDRAWITEMSTRUCT@@@Z @ 1768 NONAME
	 ?DrawItem@CWindowList@@UAEXPAUtagDRAWITEMSTRUCT@@@Z @ 1769 NONAME
	 ?DrawMask@CImageWell@@QAEHPAVCDC@@VCPoint@@IK@Z @ 1770 NONAME
	 ?DrawMDIControls@CCustomBar@@IAEXPAVCDC@@@Z @ 1771 NONAME
	 ?DrawMDIDocumentIcon@CCustomBar@@IAEHPAVCDC@@ABVCRect@@@Z @ 1772 NONAME
	 ?DrawNodeGlyph@CTreeCtl@@UAEXPAVCDC@@PAVCNode@@HVCPoint@@@Z @ 1773 NONAME
	 ?DrawPageRect@CTabRow@@QAEXPAVCDC@@ABVCRect@@@Z @ 1774 NONAME
	 ?DrawScrollers@CTabRow@@AAEXPAVCDC@@@Z @ 1775 NONAME
	 ?DrawSelection@CToolCustomizer@@QAEXPAVCDC@@@Z @ 1776 NONAME
	 ?DrawSelectionChange@CColorCombo@@QAEXPAVCDC@@PAUtagDRAWITEMSTRUCT@@@Z @ 1777 NONAME
	 ?DrawSeparator@CBMenuItem@@QAEXPAVCDC@@PBVCRect@@@Z @ 1778 NONAME
	 ?DrawSplitter@@YAXPAVCDC@@VCRect@@H@Z @ 1779 NONAME
	 ?DrawStatusBitmap@CSushiBar@@QAEXPAUHDC__@@VCRect@@PAUHBITMAP__@@PBDI@Z @ 1780 NONAME
	 ?DrawStatusHelper@CSushiBar@@QAEXPAUHDC__@@VCRect@@I@Z @ 1781 NONAME
	 ?DrawStatusPercentDone@CSushiBar@@QAEXPAUHDC__@@VCRect@@PBDH2@Z @ 1782 NONAME
	 ?DrawStatusText@COldStatusBar@@IAEXPAVCDC@@ABVCRect@@PBDI@Z @ 1783 NONAME
	 ?DrawStatusText@CSushiBar@@QAEXPAUHDC__@@VCRect@@PBDIII@Z @ 1784 NONAME
	 ?DrawTab@CTabRow@@AAEXPAVCDC@@HH@Z @ 1785 NONAME
	 ?DrawTextA@CDC@@UAEHPBDHPAUtagRECT@@I@Z @ 1786 NONAME
	 ?DrawTrackRect@CDockWnd@@IAEXPAVCDC@@PBVCRect@@1@Z @ 1787 NONAME
	 ?DrawTrackRect@CDockWorker@@IAEXPAVCDC@@W4DOCKPOS@@PBVCRect@@H12H@Z @ 1788 NONAME
	 ?DrawTrackRect@CToolCustomizer@@IAEXPAVCDC@@PBVCRect@@1@Z @ 1789 NONAME
	 ?Drop@CDragNDrop@@UAEXIVCPoint@@@Z @ 1790 NONAME
	 ?DropTargetFromPoint@CSlob@@SAPAV1@VCPoint@@@Z @ 1791 NONAME
	 ?DropTargetFromPoint@CSlobWnd@@UAEPAVCSlob@@ABUtagPOINT@@@Z @ 1792 NONAME
	 ?DsDualHandleException@@YAJABU_GUID@@PBVCException@@@Z @ 1793 NONAME
	 ?DsMessageBox@@YAHII@Z @ 1794 NONAME
	 ?DsMessageBox@@YAHIII@Z @ 1795 NONAME
	 ?DsMessageBox@@YAHPBDII@Z @ 1796 NONAME
	 ?DsThrowCannedOleDispatchException@@YAXJI@Z @ 1797 NONAME
	 ?DsThrowOleDispatchException@@YAXJII@Z @ 1798 NONAME
	 ?DsThrowOleDispatchException@@YAXJPBDI@Z @ 1799 NONAME
	 ?DsThrowShellOleDispatchException@@YAXJI@Z @ 1800 NONAME
	 ?Dump@CObject@@UBEXAAVCDumpContext@@@Z @ 1801 NONAME
	 ?DuplicateBitmap@GLOBAL_DATA@@SAPAUHBITMAP__@@PAVCWnd@@PAU2@VCSize@@VCPoint@@@Z @ 1802 NONAME
	 ?DWordToAccel@CKeyCustDlg@@QAE?AUtagACCEL@@K@Z @ 1803 NONAME
	 ?DynSetButtons@CASBar@@QAEHPBIH@Z @ 1804 NONAME
	 ?EarlyStealMenuMessage@CASBar@@SAHPAUtagMSG@@@Z @ 1805 NONAME
	 ?EditButtonExtra@CCustomBar@@QAEPAUTBBUTTON_EXTRA@@H@Z @ 1806 NONAME
	 ?EditProperty@COlePage@@QAEXJ@Z @ 1807 NONAME
	 ?ElementFromPoint@CGridCellRow@@UAEPAVCGridElement@@ABVCPoint@@@Z @ 1808 NONAME
	 ?ElementFromPoint@CGridElement@@UAEPAV1@ABVCPoint@@@Z @ 1809 NONAME
	 ?ElementFromPoint@CGridWnd@@QAEPAVCGridElement@@ABVCPoint@@@Z @ 1810 NONAME
	 ?EmitCurrentAction@CShellRecorder@@IAEXXZ @ 1811 NONAME
	 ?EmitMethodCall@CShellRecorder@@QAEXW4ShellElement@@@Z @ 1812 NONAME
	 ?EmitMethodCall@CShellRecorder@@QAEXW4ShellElement@@AAVCRecArg@@@Z @ 1813 NONAME
	 ?EmitParameterizedPropertyAssignment@CShellRecorder@@QAEXW4ShellElement@@AAVCRecArg@@1@Z @ 1814 NONAME
	 ?EmitPropertyAssignment@CShellRecorder@@QAEXW4ShellElement@@AAVCRecArg@@@Z @ 1815 NONAME
	 ?Empty@CCustomBar@@IAEXXZ @ 1816 NONAME
	 ?Empty@CCustomBarProxy@@UAEXXZ @ 1817 NONAME
	 ?Empty@CMenuPopupProxy@@UAEXXZ @ 1818 NONAME
	 ?Empty@CPropBag@@QAEXXZ @ 1819 NONAME
	 ?EmptyList@CGoToDialog@@QAEXXZ @ 1820 NONAME
	 ?Enable@CAutosave@@QAEHI@Z @ 1821 NONAME
	 ?Enable@CBMenuItem@@QAEIH@Z @ 1822 NONAME
	 ?Enable@CBMenuItemCmdUI@@UAEXH@Z @ 1823 NONAME
	 ?Enable@CCmdUIEnable@@UAEXH@Z @ 1824 NONAME
	 ?Enable@CCustomToolCmdUI@@UAEXH@Z @ 1825 NONAME
	 ?Enable@COldStatusCmdUI@@UAEXH@Z @ 1826 NONAME
	 ?Enable@COldToolCmdUI@@UAEXH@Z @ 1827 NONAME
	 ?Enable@COleUndoManager@@UAGJH@Z @ 1828 NONAME
	 ?Enable@CTestUI@@UAEXH@Z @ 1829 NONAME
	 ?Enable@CTestUI2@@UAEXH@Z @ 1830 NONAME
	 ?EnableAutoSort@CGridWnd@@QAEXH@Z @ 1831 NONAME
	 ?EnableButton@CDlgTab@@MAEHPAVCWnd@@H@Z @ 1832 NONAME
	 ?EnableButton@CGoToDialog@@QAEXGH@Z @ 1833 NONAME
	 ?EnableButtons@CNewFileDialogTab@@AAEXXZ @ 1834 NONAME
	 ?EnableButtons@CNewOtherDocDialogTab@@AAEXXZ @ 1835 NONAME
	 ?EnableButtons@CNewProjectDialogTab@@AAEXXZ @ 1836 NONAME
	 ?EnableButtons@CNewTemplateDialogTab@@AAEXXZ @ 1837 NONAME
	 ?EnableButtons@CNewWorkspaceDialogTab@@AAEXXZ @ 1838 NONAME
	 ?EnableClock@@YAXH@Z @ 1839 NONAME
	 ?EnableControl@@YAXPAVCWnd@@W4GPT@@@Z @ 1840 NONAME
	 ?EnableControls@CCustomizeToolsDialog@@QAEXXZ @ 1841 NONAME
	 ?EnableDualAutomation@CApplication@@IAEXXZ @ 1842 NONAME
	 ?EnableDualAutomation@CAutoCollection@@IAEXXZ @ 1843 NONAME
	 ?EnableDualAutomation@CAutoDocumentDefault@@IAEXXZ @ 1844 NONAME
	 ?EnableDualAutomation@CAutoDocuments@@IAEXXZ @ 1845 NONAME
	 ?EnableDualAutomation@CAutoProjects@@IAEXXZ @ 1846 NONAME
	 ?EnableDualAutomation@CAutoWindowDefault@@IAEXXZ @ 1847 NONAME
	 ?EnableDualAutomation@CAutoWindows@@IAEXXZ @ 1848 NONAME
	 ?EnableIME@CIME@@QAEHH@Z @ 1849 NONAME
	 ?EnableManagerInput@CDockManager@@QAEXH@Z @ 1850 NONAME
	 ?EnableMenuItem@CBMenuPopup@@QAEIII@Z @ 1851 NONAME
	 ?EnableModeless@CApplication@@QAEXH@Z @ 1852 NONAME
	 ?EnableModeless@XApplication@CApplication@@EAGJF@Z @ 1853 NONAME
	 ?EnableModeless@XBuilderWizardManager@CBuilderWizardManager@@UAGJH@Z @ 1854 NONAME
	 ?EnableModeless@XIPCompBuilderWizardManager@CIPCompBuilderWizardManager@@UAGJH@Z @ 1855 NONAME
	 ?EnableMultiSelect@CGridWnd@@QAEXH@Z @ 1856 NONAME
	 ?EnablePage@CSlobPage@@QAEHH@Z @ 1857 NONAME
	 ?EnableRedirection@CCustomizeToolsDialog@@QAEXXZ @ 1858 NONAME
	 ?EnableSort@CGridWnd@@QAEXH@Z @ 1859 NONAME
	 ?EnableUI@CShellAutomationState@@UAEXXZ @ 1860 NONAME
	 ?EnableUndo@CSlobWnd@@UAEHXZ @ 1861 NONAME
	 ?EnableUpdates@CSlobWnd@@UAEXH@Z @ 1862 NONAME
	 ?EnableUpdates@CTreeCtl@@QAEXXZ @ 1863 NONAME
	 ?EndDefer@CBMenuPopup@@QAEXXZ @ 1864 NONAME
	 ?EndDialog@CTabbedDialog@@QAEXH@Z @ 1865 NONAME
	 ?EndDragDrop@CMainFrame@@QAEXXZ @ 1866 NONAME
	 ?EndDrawButton@COldToolBar@@IAEXAAUDrawState@1@@Z @ 1867 NONAME
	 ?EndLayout@CDockWnd@@IAEXPAU_DWI@@H@Z @ 1868 NONAME
	 ?EndLoad@CDockWorker@@QAEXXZ @ 1869 NONAME
	 ?EndModalState@CMainFrame@@UAEXXZ @ 1870 NONAME
	 ?EndModalState@CWnd@@UAEXXZ @ 1871 NONAME
	 ?EndPercentDone@CSushiBar@@QAEXXZ @ 1872 NONAME
	 ?EndScrollDefer@CBMenuPopup@@QAEXXZ @ 1873 NONAME
	 ?EndSetRepeatCount@CTheApp@@QAEXW4REPEAT_COUNT_STATE@1@@Z @ 1874 NONAME
	 ?EndUndo@CIPCompDoc@@QAEXH@Z @ 1875 NONAME
	 ?EndUndo@CIPCompSlob@@UAEXH@Z @ 1876 NONAME
	 ?EndUndo@CSlob@@UAEXH@Z @ 1877 NONAME
	 ?EndUndo@CSlobWnd@@QAEXH@Z @ 1878 NONAME
	 ?EndUndo@CUndoSlob@@UAEXH@Z @ 1879 NONAME
	 ?EnsureCustomizerActive@CMainFrame@@QAEXXZ @ 1880 NONAME
	 ?EnsureExtHelpKeys@@YAXXZ @ 1881 NONAME
	 ?EnsureMDIControls@CCustomBar@@QAEXXZ @ 1882 NONAME
	 ?EnsurePopupActive@CMainFrame@@QAEXXZ @ 1883 NONAME
	 ?EnsureSelectionScrolled@CBMenuPopup@@QAEXXZ @ 1884 NONAME
	 ?EnsureSizeCache@CBMenuItem@@SAXXZ @ 1885 NONAME
	 ?EnsureSlashAtEnd@@YAXAAVCString@@@Z @ 1886 NONAME
	 ?EnsureValidSelection@CMultiSlob@@UAEXXZ @ 1887 NONAME
	 ?EnsureValidSelection@CSlobWnd@@UAEXXZ @ 1888 NONAME
	 ?EnsureViewActive@CMainFrame@@QAEXXZ @ 1889 NONAME
	 ?EnumCmdTable@CHelpKeyWnd@@QAEXPAVCGridWnd@@H@Z @ 1890 NONAME
	 ?Enumerate@CFontNameCombo@@QAEXH@Z @ 1891 NONAME
	 ?EnumFontNamesCallBack@@YGHPBUtagENUMLOGFONTA@@PBUtagNEWTEXTMETRICA@@HJ@Z @ 1892 NONAME
	 ?EnumFontSizesCallBack@@YGHPBUtagENUMLOGFONTA@@PBUtagNEWTEXTMETRICA@@HJ@Z @ 1893 NONAME
	 ?EnumItemRects@CCustomBar@@QBEXHAAVCRect@@AAHW4ORIENTATION@@PBUtagRECT@@@Z @ 1894 NONAME
	 ?EnumRedoable@COleUndoManager@@UAGJPAPAUIEnumOleUndoUnits@@@Z @ 1895 NONAME
	 ?EnumResNameProc@@YGHPAXPBDPADJ@Z @ 1896 NONAME
	 ?EnumUndoable@COleUndoManager@@UAGJPAPAUIEnumOleUndoUnits@@@Z @ 1897 NONAME
	 ?ErrorBox@@YAHIZZ @ 1898 NONAME
	 ?Escape@CDC@@UAEHHHPBDPAX@Z @ 1899 NONAME
	 ?Escaped@@YGDD@Z @ 1900 NONAME
	 ?EstimateAction@@YAIHIEEPAUpatType@@@Z @ 1901 NONAME
	 ?EventQueueAdd@CApplication@@IAEXPAVCEventEntry@@@Z @ 1902 NONAME
	 ?EventQueueAdd@CApplication@@QAEXPAVCConnectionPoint@@0P8IApplicationEvents@@AGJXZJPAEPAK@Z @ 1903 NONAME
	 ?EventQueueDestroy@CApplication@@IAEXXZ @ 1904 NONAME
	 ?EventQueueInit@CApplication@@IAEXXZ @ 1905 NONAME
	 ?EventQueueRemove@CApplication@@IAEPAVCEventEntry@@XZ @ 1906 NONAME
	 ?EventQueueRemoveAll@CApplication@@IAEXXZ @ 1907 NONAME
	 ?Exec@XOleCommandTarget@CDocObjectFrameHook@@UAGJPBU_GUID@@KKPAUtagVARIANT@@1@Z @ 1908 NONAME
	 ?ExecCmd@CIPCompFrameHook@@IAEHPAUIOleCommandTarget@@PAU_GUID@@I@Z @ 1909 NONAME
	 ?ExecuteBuilder@COleAllPage@@QAEJPAVCPropItem@@@Z @ 1910 NONAME
	 ?ExecuteBWMAndPPBBuilder@COleAllPage@@IAEJPAVCPropItem@@JPAUtagVARIANT@@@Z @ 1911 NONAME
	 ?ExecuteBWMIntrinsicBuilder@COleAllPage@@IAEJPAVCPropItem@@PAUtagVARIANT@@@Z @ 1912 NONAME
	 ?ExecuteCommand@CApplication@@QAEXPBD@Z @ 1913 NONAME
	 ?ExecuteCommand@XApplication@CApplication@@EAGJPAG@Z @ 1914 NONAME
	 ?ExecuteConfiguration@CApplication@@QAEXABUtagVARIANT@@@Z @ 1915 NONAME
	 ?ExecuteConfiguration@XApplication@CApplication@@EAGJUtagVARIANT@@@Z @ 1916 NONAME
	 ?ExecuteInternalBuilder@COleAllPage@@IAEJPAVCPropItem@@PAUtagVARIANT@@@Z @ 1917 NONAME
	 ?ExecutePPBBuilder@COleAllPage@@IAEJPAUIDispatch@@J@Z @ 1918 NONAME
	 ?ExistsOnDisk@CDir@@QBEHXZ @ 1919 NONAME
	 ?ExitInstance@CTheApp@@UAEHXZ @ 1920 NONAME
	 ?ExitTick@CAutosave@@QAEXXZ @ 1921 NONAME
	 ?Expand@CBMenuItem@@QAEPAVCBMenuPopup@@H@Z @ 1922 NONAME
	 ?Expand@CTreeCtl@@QAEXHH@Z @ 1923 NONAME
	 ?ExpandAll@CTreeCtl@@QAEXXZ @ 1924 NONAME
	 ?ExpandDestination@CCustomBarProxy@@UAEHHH@Z @ 1925 NONAME
	 ?ExpandDestination@CMenuPopupProxy@@UAEHHH@Z @ 1926 NONAME
	 ?ExpandItem@CASBar@@UAEHHHH@Z @ 1927 NONAME
	 ?ExpandItem@CCustomBar@@UAEHHHH@Z @ 1928 NONAME
	 ?ExpandToolArguments@@YAHAAVCString@@@Z @ 1929 NONAME
	 ?ExpandToolArguments@@YAHPADI@Z @ 1930 NONAME
	 ?ExtHelpNotAvailable@@YAXPBD@Z @ 1931 NONAME
	 ?ExtractAccelerator@GLOBAL_DATA@@SADPBD@Z @ 1932 NONAME
	 ?ExtTextOutA@CDC@@UAEHHHIPBUtagRECT@@PBDIPAH@Z @ 1933 NONAME
	 ?FAddFile@CFileChange@@QAEHPBDP6AXPBVFCItem@@K@ZH@Z @ 1934 NONAME
	 ?FAddFileAsync@CFileChange@@QAEHPBDP6AXPBVFCItem@@K@ZP6AX1@ZPAX4H@Z @ 1935 NONAME
	 ?FAddOverspillFile@CFileChange@@IAEHPAVCFileData@@@Z @ 1936 NONAME
	 ?FCmdRepeatPretranslate@CTheApp@@QAEHPAUtagMSG@@@Z @ 1937 NONAME
	 ?FContinueIdle@XMsoComponentHost@CIPCompHostApp@@UAGHXZ @ 1938 NONAME
	 ?FContinueIdle@XOleIPCompUIMgr@CIPCompFrameHook@@UAGHXZ @ 1939 NONAME
	 ?FContinueMessageLoop@XMsoComponent@CIPCompMainFrame@@UAGHKPAXPAUtagMSG@@@Z @ 1940 NONAME
	 ?FDebugMessage@XMsoComponent@CIPCompMainFrame@@UAGHPAXIIJ@Z @ 1941 NONAME
	 ?FDebugMessage@XMsoComponentHost@CIPCompHostApp@@UAGHPAXIIJ@Z @ 1942 NONAME
	 ?FDelCallBack@CFileData@@QAEHP6AXPBVFCItem@@K@Z@Z @ 1943 NONAME
	 ?FDelFile@CFileChange@@QAEHPBDP6AXPBVFCItem@@K@Z@Z @ 1944 NONAME
	 ?FDelFileAsync@CFileChange@@QAEHPBDP6AXPBVFCItem@@K@ZP6AX1@ZPAX4@Z @ 1945 NONAME
	 ?FDirFromFile@@YAHAAVCString@@PBD@Z @ 1946 NONAME
	 ?fDismissOpenDir@CDirChooser@@MAEHQBD@Z @ 1947 NONAME
	 ?fDismissOpenDir@CDirChooser@@MAEHQBDPAUHWND__@@@Z @ 1948 NONAME
	 ?fDismissOpenDir@CFileFindDlg@@MAEHQBD@Z @ 1949 NONAME
	 ?fDismissOpenDir@CFileFindDlg@@MAEHQBDPAUHWND__@@@Z @ 1950 NONAME
	 ?FDisplayTitle@CPartDoc@@UAEHXZ @ 1951 NONAME
	 ?FDoIdle@CIPCompFrameHook@@QAEHK@Z @ 1952 NONAME
	 ?FDoIdle@XMsoComponent@CIPCompMainFrame@@UAGHK@Z @ 1953 NONAME
	 ?FEpsASCII@@YGPADPADPAJ@Z @ 1954 NONAME
	 ?FEpsTab@@YGHPAD@Z @ 1955 NONAME
	 ?FFilelistEtcFromFilename@CFileChange@@IAEHPBDAAPAVCSafePFileDataList@@AAPAVCFileData@@AAPAU__POSITION@@@Z @ 1956 NONAME
	 ?FFindURL@@YAHPBDKAAK11@Z @ 1957 NONAME
	 ?FGetFileInfo@StatBuf@@QAEHPBD@Z @ 1958 NONAME
	 ?FGridToolBarCmd@CGridControlWnd@@UAEHIH@Z @ 1959 NONAME
	 ?FIgnore@CFileData@@QAEHP6AXPBVFCItem@@K@Z@Z @ 1960 NONAME
	 ?FIgnoreFile@CFileChange@@QAEHPBDHP6AXPBVFCItem@@K@Z@Z @ 1961 NONAME
	 ?FileErrorMessageBox@@YAXIPBD@Z @ 1962 NONAME
	 ?FileExists@@YAHPBD@Z @ 1963 NONAME
	 ?Fill@CElList@@QBEXAAVCListBox@@@Z @ 1964 NONAME
	 ?Fill@CToolGroup@@QAEXPAUPOPDESC@@I@Z @ 1965 NONAME
	 ?Fill@CWinList@@QBEXAAVCListBox@@@Z @ 1966 NONAME
	 ?FillAllCommandsList@CCmdCache@@QAEXPAVCListBox@@H@Z @ 1967 NONAME
	 ?FillBufHeapUse@@YAHPAD@Z @ 1968 NONAME
	 ?FillCallBack@CFontNameCombo@@CGHPBUtagENUMLOGFONTA@@PBUtagNEWTEXTMETRICA@@HJ@Z @ 1969 NONAME
	 ?FillCategoriesList@CKeyCustDlg@@MAEHH@Z @ 1970 NONAME
	 ?FillCheckList@CEnum@@UAEXPAVCPropCheckList@@HPAVCSlob@@@Z @ 1971 NONAME
	 ?FillCheckList@CLocalizedEnum@@UAEXPAVCPropCheckList@@HPAVCSlob@@@Z @ 1972 NONAME
	 ?FillComboBox@CEnum@@UAEXPAVCComboBox@@HPAVCSlob@@@Z @ 1973 NONAME
	 ?FillComboBox@CLocalizedEnum@@UAEXPAVCComboBox@@HPAVCSlob@@@Z @ 1974 NONAME
	 ?FillCommandList@CAppToolGroups@@QAEXIPAVCListBox@@@Z @ 1975 NONAME
	 ?FillCommandList@CToolGroup@@QAEXPAVCListBox@@H@Z @ 1976 NONAME
	 ?FillCommandsList@CKeyCustDlg@@MAEHHH@Z @ 1977 NONAME
	 ?FillContents@CPropList@@QAEXPAVCPropItem@@@Z @ 1978 NONAME
	 ?FillDeletedCommandsList@CCmdCache@@QAEXPAVCListBox@@@Z @ 1979 NONAME
	 ?FillDeletedMenuItemList@CMainFrame@@QAEXPAVCListBox@@@Z @ 1980 NONAME
	 ?FillFileExceptionFromScode@@YAXPAVCFileException@@J@Z @ 1981 NONAME
	 ?FillFontNameCombo@CIPCompFrameHook@@IAEXPAVCComboBox@@PAUIOleCommandTarget@@@Z @ 1982 NONAME
	 ?FillFontSizeCombo@CIPCompFrameHook@@IAEXPAVCComboBox@@PBD@Z @ 1983 NONAME
	 ?FillGrid@CCustomizeToolsDialog@@QAEXH@Z @ 1984 NONAME
	 ?FillGrid@CHelpKeyWnd@@QAEXXZ @ 1985 NONAME
	 ?FillGridCmds@CHelpKeyWnd@@QAEXH@Z @ 1986 NONAME
	 ?FillGroupList@CAppToolGroups@@QAEXPAVCComboBox@@@Z @ 1987 NONAME
	 ?FillInHeader@CMessageBox@@QAEXPAUDLGTEMPLATE@@@Z @ 1988 NONAME
	 ?FillIPCCombo@CIPCompDoc@@IAEXPAVCComboBox@@PAU_GUID@@KK@Z @ 1989 NONAME
	 ?FillIPCCombo@CIPCompFrameHook@@QAEXPAVCComboBox@@PAU_GUID@@KK@Z @ 1990 NONAME
	 ?FillKeysList@CKeyCustDlg@@MAEHIH@Z @ 1991 NONAME
	 ?FillListBox@CEnum@@UAEXPAVCListBox@@HPAVCSlob@@@Z @ 1992 NONAME
	 ?FillListBox@CLocalizedEnum@@UAEXPAVCListBox@@HPAVCSlob@@@Z @ 1993 NONAME
	 ?FillListBox@COpenDocsDlg@@AAEXXZ @ 1994 NONAME
	 ?FillMenuList@CCmdCache@@QAEXPAVCListBox@@@Z @ 1995 NONAME
	 ?FillNewMenuList@CCmdCache@@QAEXPAVCListBox@@@Z @ 1996 NONAME
	 ?FillPropList@COleAllPage@@IAEXXZ @ 1997 NONAME
	 ?FillUndoList@CRedoControl@@UAEXAAVCListBox@@@Z @ 1998 NONAME
	 ?FillUndoList@CUndoControl@@UAEXAAVCListBox@@@Z @ 1999 NONAME
	 ?FillZoomCombo@CIPCompFrameHook@@IAEXPAVCComboBox@@PAUIOleCommandTarget@@@Z @ 2000 NONAME
	 ?Find@CDirList@@QBEPAU__POSITION@@PAVCDir@@PAU2@@Z @ 2001 NONAME
	 ?Find@CPathList@@QBEPAU__POSITION@@PAVCPath@@PAU2@@Z @ 2002 NONAME
	 ?FindAccel@@YAHPBDPAUtagMSG@@@Z @ 2003 NONAME
	 ?FindButton@CCustomBar@@QBEHI@Z @ 2004 NONAME
	 ?FindCmd@CCmd@@UAEPAV1@G@Z @ 2005 NONAME
	 ?FindCmd@CCmdGroup@@UAEPAVCCmd@@G@Z @ 2006 NONAME
	 ?FindCmd@CCmdGroupSeparator@@UAEPAVCCmd@@G@Z @ 2007 NONAME
	 ?FindCmd@CCmdMenu@@UAEPAVCCmd@@G@Z @ 2008 NONAME
	 ?FindControl@CSlobPage@@QAEPAUCControlMap@@I@Z @ 2009 NONAME
	 ?FindControl@CTabbedDialog@@IAEPAVCWnd@@PAV2@AAVCObList@@W4FC@1@@Z @ 2010 NONAME
	 ?FindDIBBits@@YAPADPAD@Z @ 2011 NONAME
	 ?FindDockInfo@CDockWnd@@IAEPAU_DWI@@PAU2@PAVCWnd@@@Z @ 2012 NONAME
	 ?FindGroups@CCmdGroup@@UAEHGAAV?$CTypedPtrArray@VCPtrArray@@PAVCCmdGroup@@@@H@Z @ 2013 NONAME
	 ?FindGroups@CCmdGroupSeparator@@UAEHGAAV?$CTypedPtrArray@VCPtrArray@@PAVCCmdGroup@@@@H@Z @ 2014 NONAME
	 ?FindGroups@CCmdMenu@@UAEHGAAV?$CTypedPtrArray@VCPtrArray@@PAVCCmdGroup@@@@H@Z @ 2015 NONAME
	 ?FindGroups@CCmdObject@@UAEHGAAV?$CTypedPtrArray@VCPtrArray@@PAVCCmdGroup@@@@H@Z @ 2016 NONAME
	 ?FindIndex@CDirList@@QBEPAU__POSITION@@H@Z @ 2017 NONAME
	 ?FindIndex@CPathList@@QBEPAU__POSITION@@H@Z @ 2018 NONAME
	 ?FindInString@@YAHPAUFINDREPLACEDISK@@PBDHPAPBDPAK@Z @ 2019 NONAME
	 ?FindInStringArray@@YAHPBD0@Z @ 2020 NONAME
	 ?FindInterface@CTheApp@@QAEJABU_GUID@@PAPAX@Z @ 2021 NONAME
	 ?FindLastChild@CBMenuPopup@@QAEPAV1@XZ @ 2022 NONAME
	 ?FindNextToLastChild@CBMenuPopup@@QAEPAV1@XZ @ 2023 NONAME
	 ?FindNextVisibleItem@CBMenuPopup@@QAEHHH@Z @ 2024 NONAME
	 ?FindNextVisibleItem@CCustomBar@@QAEHHH@Z @ 2025 NONAME
	 ?FindNextVisibleItem@CCustomBarProxy@@UAEHHH@Z @ 2026 NONAME
	 ?FindNextVisibleItem@CMenuPopupProxy@@UAEHHH@Z @ 2027 NONAME
	 ?FindNode@CTreeCtl@@QAEHK@Z @ 2028 NONAME
	 ?FindNode@CTreeCtl@@QAEHPBDAAKH@Z @ 2029 NONAME
	 ?FindPack@CCmdCache@@QAEHIPAVCPack@@@Z @ 2030 NONAME
	 ?FindPack@CTE@@QAEHPAVCPack@@@Z @ 2031 NONAME
	 ?FindPackage@CCmdCache@@QAEHIPAVCPackage@@@Z @ 2032 NONAME
	 ?FindPackage@CTE@@QAEHPAVCPackage@@@Z @ 2033 NONAME
	 ?FindProp@CSlobPage@@QAEPAUCControlMap@@I@Z @ 2034 NONAME
	 ?FindSpecialHandler@@YAHAAVCButtonEdit@@IH@Z @ 2035 NONAME
	 ?FindString@CPartView@@UAEHPAUFINDREPLACEDISK@@@Z @ 2036 NONAME
	 ?FindStringExact@CFontNameCombo@@QBEHHPBD@Z @ 2037 NONAME
	 ?FindTab@CWidgetScrollBar@@QAEHK@Z @ 2038 NONAME
	 ?FindUnit@COleParentUndoUnit@@UAGJPAUIOleUndoUnit@@@Z @ 2039 NONAME
	 ?Finish@CFileSaver@@QAEHXZ @ 2040 NONAME
	 ?Finish@CStateSaver@@QAEHXZ @ 2041 NONAME
	 ?FinishActivation@CPartFrame@@SAXXZ @ 2042 NONAME
	 ?FInit@CFileChange@@QAEHK@Z @ 2043 NONAME
	 ?FireBeforeApplicationShutDown@CApplication@@QAEXXZ @ 2044 NONAME
	 ?FireBeforeDocumentClose@CApplication@@QAEXPAUIDispatch@@@Z @ 2045 NONAME
	 ?FireCreationEvent@CPartDoc@@QAEXXZ @ 2046 NONAME
	 ?FireDispatchEvent@?$CTypedEventEntry@UIApplicationEvents@@@@UAEXXZ @ 2047 NONAME
	 ?FireDispatchEvent@@YAHHPAVCConnectionPoint@@JPAEZZ @ 2048 NONAME
	 ?FireDispatchEventV@@YAHHPAVCConnectionPoint@@JPAEPAD@Z @ 2049 NONAME
	 ?FireDocumentOpen@CApplication@@QAEXPAUIDispatch@@@Z @ 2050 NONAME
	 ?FireDocumentSave@CApplication@@QAEXPAUIDispatch@@@Z @ 2051 NONAME
	 ?FireDualEvent@?$CTypedEventEntry@UIApplicationEvents@@@@UAEXXZ @ 2052 NONAME
	 ?FireNewDocument@CApplication@@QAEXPAUIDispatch@@@Z @ 2053 NONAME
	 ?FireWindowActivate@CApplication@@QAEXPAUIDispatch@@@Z @ 2054 NONAME
	 ?FireWindowDeactivate@CApplication@@QAEXPAUIDispatch@@@Z @ 2055 NONAME
	 ?FirstWindowIndex@CWinList@@QBEHXZ @ 2056 NONAME
	 ?Fit@CCustomBar@@QAE?AVCSize@@HW4ORIENTATION@@@Z @ 2057 NONAME
	 ?FixupSelections@CDragNDrop@@UAEXPAVCMultiSlob@@0@Z @ 2058 NONAME
	 ?FlashStatePump@CTheApp@@QAEXXZ @ 2059 NONAME
	 ?FlipToPage@CSheetWnd@@QAEHABVCString@@@Z @ 2060 NONAME
	 ?FlipToPage@CSheetWnd@@QAEHH@Z @ 2061 NONAME
	 ?FloatWnd@CDockWorker@@IAEHABVCRect@@@Z @ 2062 NONAME
	 ?Flush@CIME@@QAEXPAVCWnd@@@Z @ 2063 NONAME
	 ?Flush@CUndoSlob@@QAEXXZ @ 2064 NONAME
	 ?Flush@CUndoStack@@AAEXXZ @ 2065 NONAME
	 ?FlushInforms@CSheetSlob@@QAEXXZ @ 2066 NONAME
	 ?FlushKeys@@YAXXZ @ 2067 NONAME
	 ?FlushLast@CUndoSlob@@QAEXXZ @ 2068 NONAME
	 ?FlushMenuFonts@GLOBAL_DATA@@QAEXXZ @ 2069 NONAME
	 ?FlushMenuSizes@CCmdCache@@QAEXXZ @ 2070 NONAME
	 ?FlushRedo@CUndoStack@@AAEXXZ @ 2071 NONAME
	 ?FlushSizeCache@CBMenuItem@@SAXXZ @ 2072 NONAME
	 ?FlushSizeCache@CBMenuPopup@@QAEXXZ @ 2073 NONAME
	 ?FlushUndo@CSlobWnd@@QAEXXZ @ 2074 NONAME
	 ?FlushUnusedPages@CSheetWnd@@QAEXXZ @ 2075 NONAME
	 ?FOnUIComponentExitState@XOleIPCompUIMgr@CIPCompFrameHook@@UAGHKKK@Z @ 2076 NONAME
	 ?ForcePropertyBrowserToshow@COleAllPage@@IAEXXZ @ 2077 NONAME
	 ?ForceRectBelowTop@@YAXAAVCRect@@@Z @ 2078 NONAME
	 ?ForceRectOnScreen@@YAXAAVCRect@@@Z @ 2079 NONAME
	 ?ForceReleaseCapture@CASBar@@SAXXZ @ 2080 NONAME
	 ?ForceVectors@@YAXXZ @ 2081 NONAME
	 ?Format@CCPLReg@@QAE?BVCString@@AAVCTime@@W4FORMAT_TYPE@@K@Z @ 2082 NONAME
	 ?Format@CStatusClock@@QAE?AVCString@@XZ @ 2083 NONAME
	 ?ForwardCharKeyDown@CBMenuPopup@@QAEIDPAH@Z @ 2084 NONAME
	 ?ForwardDownKey@CBMenuPopup@@QAEXXZ @ 2085 NONAME
	 ?ForwardEndKey@CBMenuPopup@@QAEXXZ @ 2086 NONAME
	 ?ForwardHomeKey@CBMenuPopup@@QAEXXZ @ 2087 NONAME
	 ?ForwardReturnKey@CBMenuPopup@@QAEIXZ @ 2088 NONAME
	 ?ForwardRightKey@CBMenuPopup@@QAEHXZ @ 2089 NONAME
	 ?ForwardUpKey@CBMenuPopup@@QAEXXZ @ 2090 NONAME
	 ?FPreTranslateMessage@XMsoComponent@CIPCompMainFrame@@UAGHPAUtagMSG@@@Z @ 2091 NONAME
	 ?FPushMessageLoop@XMsoComponentHost@CIPCompHostApp@@UAGHK@Z @ 2092 NONAME
	 ?FQueryClose@CIPCompFrameHook@@QAEHH@Z @ 2093 NONAME
	 ?FQueryTerminate@XMsoComponent@CIPCompMainFrame@@UAGHH@Z @ 2094 NONAME
	 ?frameBelongsToDoc@@YAHPAVCFrameWnd@@PAVCDocument@@@Z @ 2095 NONAME
	 ?FREAltExpr@@YGHPADPAUpatType@@@Z @ 2096 NONAME
	 ?Free@CGridCtl3dInterface@@QAEXXZ @ 2097 NONAME
	 ?FreeAllTreeData@CTreeCtl@@QAEXXZ @ 2098 NONAME
	 ?FreeAssoc@?$CMap@IIPAVCBMenuPopup@@AAPAV1@@@IAEXPAUCAssoc@1@@Z @ 2099 NONAME
	 ?FreeAssoc@CMapDirToOb@@IAEXPAUCAssoc@1@@Z @ 2100 NONAME
	 ?FreeAssoc@CMapPathToOb@@IAEXPAUCAssoc@1@@Z @ 2101 NONAME
	 ?FreeNode@CDirList@@IAEXPAUCNode@1@@Z @ 2102 NONAME
	 ?FreeNode@CPathList@@IAEXPAUCNode@1@@Z @ 2103 NONAME
	 ?FreeNotifySinkInfo@COleAllPage@@IAEXXZ @ 2104 NONAME
	 ?FreeOlePtr@@YAXPAX@Z @ 2105 NONAME
	 ?FreeProxy@CBMenuPopup@@QAEXXZ @ 2106 NONAME
	 ?FREMatch@@YAHPBD0AAK1@Z @ 2107 NONAME
	 ?FromIDispatch@CApplication@@SGPAV1@PAUIApplication@@@Z @ 2108 NONAME
	 ?FromIDispatch@CAutoCollection@@SGPAV1@PAUIDualObjs@@@Z @ 2109 NONAME
	 ?FromIDispatch@CAutoDocumentDefault@@SGPAV1@PAUIGenericDocument@@@Z @ 2110 NONAME
	 ?FromIDispatch@CAutoDocuments@@SGPAV1@PAUIDocuments@@@Z @ 2111 NONAME
	 ?FromIDispatch@CAutoProjects@@SGPAV1@PAUIProjects@@@Z @ 2112 NONAME
	 ?FromIDispatch@CAutoWindowDefault@@SGPAV1@PAUIGenericWindow@@@Z @ 2113 NONAME
	 ?FromIDispatch@CAutoWindows@@SGPAV1@PAUIWindows@@@Z @ 2114 NONAME
	 ?FromString@CDirList@@QAEHPBDH@Z @ 2115 NONAME
	 ?FSetCachedStatBuf@CFileData@@QAEHXZ @ 2116 NONAME
	 ?FSettingRepeatCount@CTheApp@@QAEHPAUtagMSG@@@Z @ 2117 NONAME
	 ?FSyncFile@CFileChange@@QAEHPBD@Z @ 2118 NONAME
	 ?FThreadAddFile@CFileChange@@IAEHAAVFCItem@@@Z @ 2119 NONAME
	 ?FThreadDelFile@CFileChange@@IAEHAAVFCItem@@@Z @ 2120 NONAME
	 ?FThreadDoRequest@CFileChange@@IAEHXZ @ 2121 NONAME
	 ?FThreadIgnoreFile@CFileChange@@IAEHAAVFCItem@@@Z @ 2122 NONAME
	 ?FThreadSyncFile@CFileChange@@IAEHAAVFCItem@@@Z @ 2123 NONAME
	 ?FUIComponentInState@XOleIPCompUIMgr@CIPCompFrameHook@@UAGHK@Z @ 2124 NONAME
	 ?FWin95ReadPipe@@YAHPAX0KAAK0@Z @ 2125 NONAME
	 ?FWinNTReadPipe@@YAHPAX0KAAK0@Z @ 2126 NONAME
	 ?FWndLockWorker@CDockWorker@@IAEHPAVCWnd@@@Z @ 2127 NONAME
	 ?GainKeyFocus@CASBar@@MAEXH@Z @ 2128 NONAME
	 ?GenArrayFromBuffer@CFileOpenReturn@@AAEXXZ @ 2129 NONAME
	 ?GenBufferFromArray@CFileOpenReturn@@AAEXXZ @ 2130 NONAME
	 ?get@?$CQueue@VFCItem@@AAV1@@@QAEHAAVFCItem@@AAI@Z @ 2131 NONAME
	 ?Get@CFmtElementIterator@@QAEPAUFMT_ELEMENT@@XZ @ 2132 NONAME
	 ?Get@CFmtGroupIterator@@QAEPAUFMT_WINGROUP@@XZ @ 2133 NONAME
	 ?Get@CFmtIterator@@QAEPAVCFormatInfo@@XZ @ 2134 NONAME
	 ?Get@CFmtWindowIterator@@QAEPAUFMT_WINDOW@@XZ @ 2135 NONAME
	 ?Get@CTipFileQueue@@QAEPAVCTipFile@@XZ @ 2136 NONAME
	 ?get__NewEnum@XDocuments@CAutoDocuments@@EAGJPAPAUIUnknown@@@Z @ 2137 NONAME
	 ?get__NewEnum@XDualObjs@CAutoCollection@@EAGJPAPAUIUnknown@@@Z @ 2138 NONAME
	 ?get__NewEnum@XProjects@CAutoProjects@@EAGJPAPAUIUnknown@@@Z @ 2139 NONAME
	 ?get__NewEnum@XWindows@CAutoWindows@@EAGJPAPAUIUnknown@@@Z @ 2140 NONAME
	 ?get_Active@XApplication@CApplication@@EAGJPAF@Z @ 2141 NONAME
	 ?get_Active@XGenericDocument@CAutoDocumentDefault@@EAGJPAF@Z @ 2142 NONAME
	 ?get_Active@XGenericWindow@CAutoWindowDefault@@EAGJPAF@Z @ 2143 NONAME
	 ?get_ActiveConfiguration@XApplication@CApplication@@EAGJPAPAUIDispatch@@@Z @ 2144 NONAME
	 ?get_ActiveDocument@XApplication@CApplication@@EAGJPAPAUIDispatch@@@Z @ 2145 NONAME
	 ?get_ActiveProject@XApplication@CApplication@@EAGJPAPAUIDispatch@@@Z @ 2146 NONAME
	 ?get_ActiveWindow@XApplication@CApplication@@EAGJPAPAUIDispatch@@@Z @ 2147 NONAME
	 ?get_ActiveWindow@XGenericDocument@CAutoDocumentDefault@@EAGJPAPAUIDispatch@@@Z @ 2148 NONAME
	 ?get_Application@XApplication@CApplication@@EAGJPAPAUIDispatch@@@Z @ 2149 NONAME
	 ?get_Application@XDocuments@CAutoDocuments@@EAGJPAPAUIDispatch@@@Z @ 2150 NONAME
	 ?get_Application@XGenericDocument@CAutoDocumentDefault@@EAGJPAPAUIDispatch@@@Z @ 2151 NONAME
	 ?get_Application@XGenericWindow@CAutoWindowDefault@@EAGJPAPAUIDispatch@@@Z @ 2152 NONAME
	 ?get_Application@XProjects@CAutoProjects@@EAGJPAPAUIDispatch@@@Z @ 2153 NONAME
	 ?get_Application@XWindows@CAutoWindows@@EAGJPAPAUIDispatch@@@Z @ 2154 NONAME
	 ?get_Caption@XGenericWindow@CAutoWindowDefault@@EAGJPAPAG@Z @ 2155 NONAME
	 ?get_Count@XDocuments@CAutoDocuments@@EAGJPAJ@Z @ 2156 NONAME
	 ?get_Count@XDualObjs@CAutoCollection@@EAGJPAJ@Z @ 2157 NONAME
	 ?get_Count@XProjects@CAutoProjects@@EAGJPAJ@Z @ 2158 NONAME
	 ?get_Count@XWindows@CAutoWindows@@EAGJPAJ@Z @ 2159 NONAME
	 ?get_CurrentDirectory@XApplication@CApplication@@EAGJPAPAG@Z @ 2160 NONAME
	 ?get_Debugger@XApplication@CApplication@@EAGJPAPAUIDispatch@@@Z @ 2161 NONAME
	 ?get_Documents@XApplication@CApplication@@EAGJPAPAUIDispatch@@@Z @ 2162 NONAME
	 ?get_Errors@XApplication@CApplication@@EAGJPAJ@Z @ 2163 NONAME
	 ?get_FullName@XApplication@CApplication@@EAGJPAPAG@Z @ 2164 NONAME
	 ?get_FullName@XGenericDocument@CAutoDocumentDefault@@EAGJPAPAG@Z @ 2165 NONAME
	 ?get_Height@XApplication@CApplication@@EAGJPAJ@Z @ 2166 NONAME
	 ?get_Height@XGenericWindow@CAutoWindowDefault@@EAGJPAJ@Z @ 2167 NONAME
	 ?get_Index@XGenericWindow@CAutoWindowDefault@@EAGJPAJ@Z @ 2168 NONAME
	 ?get_Left@XApplication@CApplication@@EAGJPAJ@Z @ 2169 NONAME
	 ?get_Left@XGenericWindow@CAutoWindowDefault@@EAGJPAJ@Z @ 2170 NONAME
	 ?get_Name@XApplication@CApplication@@EAGJPAPAG@Z @ 2171 NONAME
	 ?get_Name@XGenericDocument@CAutoDocumentDefault@@EAGJPAPAG@Z @ 2172 NONAME
	 ?get_Next@XGenericWindow@CAutoWindowDefault@@EAGJPAPAUIDispatch@@@Z @ 2173 NONAME
	 ?get_Parent@XApplication@CApplication@@EAGJPAPAUIDispatch@@@Z @ 2174 NONAME
	 ?get_Parent@XDocuments@CAutoDocuments@@EAGJPAPAUIDispatch@@@Z @ 2175 NONAME
	 ?get_Parent@XGenericDocument@CAutoDocumentDefault@@EAGJPAPAUIDispatch@@@Z @ 2176 NONAME
	 ?get_Parent@XGenericWindow@CAutoWindowDefault@@EAGJPAPAUIDispatch@@@Z @ 2177 NONAME
	 ?get_Parent@XProjects@CAutoProjects@@EAGJPAPAUIDispatch@@@Z @ 2178 NONAME
	 ?get_Parent@XWindows@CAutoWindows@@EAGJPAPAUIDispatch@@@Z @ 2179 NONAME
	 ?get_Path@XApplication@CApplication@@EAGJPAPAG@Z @ 2180 NONAME
	 ?get_Path@XGenericDocument@CAutoDocumentDefault@@EAGJPAPAG@Z @ 2181 NONAME
	 ?get_Previous@XGenericWindow@CAutoWindowDefault@@EAGJPAPAUIDispatch@@@Z @ 2182 NONAME
	 ?get_Projects@XApplication@CApplication@@EAGJPAPAUIDispatch@@@Z @ 2183 NONAME
	 ?get_ReadOnly@XGenericDocument@CAutoDocumentDefault@@EAGJPAF@Z @ 2184 NONAME
	 ?get_Saved@XGenericDocument@CAutoDocumentDefault@@EAGJPAF@Z @ 2185 NONAME
	 ?get_TextEditor@XApplication@CApplication@@EAGJPAPAUIDispatch@@@Z @ 2186 NONAME
	 ?get_Top@XApplication@CApplication@@EAGJPAJ@Z @ 2187 NONAME
	 ?get_Top@XGenericWindow@CAutoWindowDefault@@EAGJPAJ@Z @ 2188 NONAME
	 ?get_Type@XGenericDocument@CAutoDocumentDefault@@EAGJPAPAG@Z @ 2189 NONAME
	 ?get_Type@XGenericWindow@CAutoWindowDefault@@EAGJPAPAG@Z @ 2190 NONAME
	 ?get_Version@XApplication@CApplication@@EAGJPAPAG@Z @ 2191 NONAME
	 ?get_Visible@XApplication@CApplication@@EAGJPAF@Z @ 2192 NONAME
	 ?get_Warnings@XApplication@CApplication@@EAGJPAJ@Z @ 2193 NONAME
	 ?get_Width@XApplication@CApplication@@EAGJPAJ@Z @ 2194 NONAME
	 ?get_Width@XGenericWindow@CAutoWindowDefault@@EAGJPAJ@Z @ 2195 NONAME
	 ?get_Windows@XApplication@CApplication@@EAGJPAPAUIDispatch@@@Z @ 2196 NONAME
	 ?get_Windows@XGenericDocument@CAutoDocumentDefault@@EAGJPAPAUIDispatch@@@Z @ 2197 NONAME
	 ?get_WindowState@XApplication@CApplication@@EAGJPAW4DsWindowState@@@Z @ 2198 NONAME
	 ?get_WindowState@XGenericWindow@CAutoWindowDefault@@EAGJPAW4DsWindowState@@@Z @ 2199 NONAME
	 ?GetAboutString@CAddOn@@UAEPBDXZ @ 2200 NONAME
	 ?GetActive@CApplication@@QAEHXZ @ 2201 NONAME
	 ?GetActive@CAutoDocumentDefault@@IAEHXZ @ 2202 NONAME
	 ?GetActive@CAutoWindowDefault@@IAEHXZ @ 2203 NONAME
	 ?GetActive@CPartDoc@@IAEHXZ @ 2204 NONAME
	 ?GetActive@CPartFrame@@QAEHXZ @ 2205 NONAME
	 ?GetActiveConfiguration@CApplication@@QAEPAUIDispatch@@XZ @ 2206 NONAME
	 ?GetActiveDocument@CApplication@@QAEPAUIDispatch@@XZ @ 2207 NONAME
	 ?GetActivePack@CCmdCache@@QAEPAVCPack@@I@Z @ 2208 NONAME
	 ?GetActivePack@CTE@@QAEPAVCPack@@XZ @ 2209 NONAME
	 ?GetActiveProject@CApplication@@QAEPAUIDispatch@@XZ @ 2210 NONAME
	 ?GetActiveSlobWnd@@YAPAVCSlobWnd@@XZ @ 2211 NONAME
	 ?GetActiveView@CTheApp@@QAEPAUHWND__@@XZ @ 2212 NONAME
	 ?GetActiveWindow@CApplication@@QAEPAUIDispatch@@XZ @ 2213 NONAME
	 ?GetActiveWindow@CAutoDocumentDefault@@IAEPAUIDispatch@@XZ @ 2214 NONAME
	 ?GetActualCase@CPath@@QAEXH@Z @ 2215 NONAME
	 ?GetActualFileCase@@YAHAAVCString@@PBD@Z @ 2216 NONAME
	 ?GetAddInInterface@CApplication@@IAEPAUIAddIn@@XZ @ 2217 NONAME
	 ?GetAppearance@CCustomBarProxy@@UAE?AW4APPEARANCE@@H@Z @ 2218 NONAME
	 ?GetAppearance@CCustomBarProxy@@UAE?AW4APPEARANCE@@XZ @ 2219 NONAME
	 ?GetAppearance@CMenuPopupProxy@@UAE?AW4APPEARANCE@@H@Z @ 2220 NONAME
	 ?GetAppearance@CMenuPopupProxy@@UAE?AW4APPEARANCE@@XZ @ 2221 NONAME
	 ?GetApplication@CApplication@@QAEPAUIDispatch@@XZ @ 2222 NONAME
	 ?GetApplication@CAutoDocumentDefault@@IAEPAUIDispatch@@XZ @ 2223 NONAME
	 ?GetApplication@CAutoDocuments@@IAEPAUIDispatch@@XZ @ 2224 NONAME
	 ?GetApplication@CAutoProjects@@IAEPAUIDispatch@@XZ @ 2225 NONAME
	 ?GetApplication@CAutoWindowDefault@@IAEPAUIDispatch@@XZ @ 2226 NONAME
	 ?GetApplication@CAutoWindows@@IAEPAUIDispatch@@XZ @ 2227 NONAME
	 ?GetApplication@CPartDoc@@IAEPAUIDispatch@@XZ @ 2228 NONAME
	 ?GetApplicationExtensions@CPackage@@UAEHPAPAUSApplicationExtension@@@Z @ 2229 NONAME
	 ?GetAppToolGroups@CAppToolGroups@@SAPAV1@H@Z @ 2230 NONAME
	 ?GetAssocAt@CMapDirToOb@@IBEPAUCAssoc@1@AAVCDir@@AAI@Z @ 2231 NONAME
	 ?GetAssocAt@CMapPathToOb@@IBEPAUCAssoc@1@AAVCPath@@AAI@Z @ 2232 NONAME
	 ?GetAssociatedFiles@CPackage@@UAEHAAVCStringArray@@H@Z @ 2233 NONAME
	 ?GetAssociatedFiles@CPartView@@UAEHAAVCStringArray@@H@Z @ 2234 NONAME
	 ?GetAssociatedFiles@CSlob@@UAEHAAVCStringArray@@@Z @ 2235 NONAME
	 ?GetAt@CStringArray@@QBE?AVCString@@H@Z @ 2236 NONAME
	 ?GetAutomationItems@XAutomationItems@CVshellPackage@@UAGJPAUCAutomationItem@@PAK@Z @ 2237 NONAME
	 ?GetAutomationObject@CPartDoc@@UAEPAUIDispatch@@H@Z @ 2238 NONAME
	 ?GetAutomationObject@CPartFrame@@UAEPAUIDispatch@@H@Z @ 2239 NONAME
	 ?GetAutosaveName@CAutosave@@UAEHHABVCPath@@AAV2@W4DirAction@1@@Z @ 2240 NONAME
	 ?GetBackColor@CFCDialogState@@QAEKXZ @ 2241 NONAME
	 ?GetBarProxy@CToolBarProxy@@SAPAV1@PAVCObject@@@Z @ 2242 NONAME
	 ?GetBarStyle@CCustomBarProxy@@UBEKXZ @ 2243 NONAME
	 ?GetBarStyle@CMenuPopupProxy@@UBEKXZ @ 2244 NONAME
	 ?GetBaseNameString@CPath@@QBEXAAVCString@@@Z @ 2245 NONAME
	 ?GetBaseUnits@CMessageBox@@IAE?AVCSize@@XZ @ 2246 NONAME
	 ?GetBitmap@CPackage@@UAEPAUHBITMAP__@@H@Z @ 2247 NONAME
	 ?GetBldInterface@CApplication@@IAEPAUIAutoBld@@XZ @ 2248 NONAME
	 ?GetBottomBorder@CCustomBar@@IBEHW4ORIENTATION@@@Z @ 2249 NONAME
	 ?GetBottomIndex@CGhostListBox@@QAEHXZ @ 2250 NONAME
	 ?GetBottomMDIArea@CCustomBar@@IBEHW4ORIENTATION@@@Z @ 2251 NONAME
	 ?GetBoundaryRect@CDockWnd@@IAEXVCPoint@@AAVCRect@@@Z @ 2252 NONAME
	 ?GetBuffer@CFileOpenReturn@@QAEPADH@Z @ 2253 NONAME
	 ?GetBuilder@CIPCompDoc@@UAEJABU_GUID@@KPAUHWND__@@PAPAUIDispatch@@PAPAU3@0PAPAUIUnknown@@@Z @ 2254 NONAME
	 ?GetBuilder@XBuilderWizardManager@CBuilderWizardManager@@UAGJABU_GUID@@KPAUHWND__@@PAPAUIDispatch@@PAPAU4@0PAPAUIUnknown@@@Z @ 2255 NONAME
	 ?GetBuilder@XIPCompBuilderWizardManager@CIPCompBuilderWizardManager@@UAGJABU_GUID@@KPAUHWND__@@PAPAUIDispatch@@PAPAU4@0PAPAUIUnknown@@@Z @ 2256 NONAME
	 ?GetBuilderWizardManager@CInternalApp@@QAEPAVCBuilderWizardManager@@XZ @ 2257 NONAME
	 ?GetBuildSystem@CIdeInterface@@QAEPAUIBuildSystem@@XZ @ 2258 NONAME
	 ?GetButtonCmdID@CCustomBarProxy@@UAEHH@Z @ 2259 NONAME
	 ?GetButtonCmdID@CMenuPopupProxy@@UAEHH@Z @ 2260 NONAME
	 ?GetButtonControl@CCustomBarProxy@@UBEPAUHWND__@@H@Z @ 2261 NONAME
	 ?GetButtonControl@CMenuPopupProxy@@UBEPAUHWND__@@H@Z @ 2262 NONAME
	 ?GetButtonExtent@CTabbedDialog@@MAEXAAVCSize@@@Z @ 2263 NONAME
	 ?GetButtonFont@GLOBAL_DATA@@QAEPAUHFONT__@@H@Z @ 2264 NONAME
	 ?GetButtonFromIndex@CTabbedDialog@@MAEPAVCButton@@H@Z @ 2265 NONAME
	 ?GetButtonImage@CCustomBarProxy@@UBEPAUHBITMAP__@@H@Z @ 2266 NONAME
	 ?GetButtonImage@CMenuPopupProxy@@UBEPAUHBITMAP__@@H@Z @ 2267 NONAME
	 ?GetButtonInfo@CCustomBarProxy@@UBEXHAAI0AAH@Z @ 2268 NONAME
	 ?GetButtonInfo@CMenuPopupProxy@@UBEXHAAI0AAH@Z @ 2269 NONAME
	 ?GetButtonInfo@COldToolBar@@QBEXHAAI0AAH@Z @ 2270 NONAME
	 ?GetButtonInfoEx@CCustomBarProxy@@UBEXHAAPAUHWND__@@AAVCString@@AAPAUHBITMAP__@@@Z @ 2271 NONAME
	 ?GetButtonInfoEx@CMenuPopupProxy@@UBEXHAAPAUHWND__@@AAVCString@@AAPAUHBITMAP__@@@Z @ 2272 NONAME
	 ?GetButtonMenu@CToolCustomizer@@SAPAUPOPDESC@@XZ @ 2273 NONAME
	 ?GetButtonSize@CCustomBar@@IBE?AVCSize@@W4ORIENTATION@@@Z @ 2274 NONAME
	 ?GetButtonSize@CCustomBarProxy@@UBE?BVCSize@@XZ @ 2275 NONAME
	 ?GetButtonSize@CMenuPopupProxy@@UBE?BVCSize@@XZ @ 2276 NONAME
	 ?GetButtonStyle@CCustomBarProxy@@UBEIH@Z @ 2277 NONAME
	 ?GetButtonStyle@CMenuPopupProxy@@UBEIH@Z @ 2278 NONAME
	 ?GetButtonStyle@COldToolBar@@QBEIH@Z @ 2279 NONAME
	 ?GetButtonText@CCustomBarProxy@@UBEABVCString@@H@Z @ 2280 NONAME
	 ?GetButtonText@CMenuPopupProxy@@UBEABVCString@@H@Z @ 2281 NONAME
	 ?GetButtonTransferInfo@CCustomBar@@UBEXHAAKPAP6GXK@Z@Z @ 2282 NONAME
	 ?GetButtonTransferInfo@CCustomBarProxy@@UBEXHAAKPAP6GXK@Z@Z @ 2283 NONAME
	 ?GetButtonTransferInfo@CMenuPopupProxy@@UBEXHAAKPAP6GXK@Z@Z @ 2284 NONAME
	 ?GetButtonVerticalFont@GLOBAL_DATA@@QAEPAUHFONT__@@H@Z @ 2285 NONAME
	 ?GetCaption@CAutoWindowDefault@@IAEPAGXZ @ 2286 NONAME
	 ?GetCaption@CPartFrame@@QAEPAGXZ @ 2287 NONAME
	 ?GetCaptionButtonRect@CBorderBar@@IBEXHAAVCRect@@@Z @ 2288 NONAME
	 ?GetCellSize@CGridRow@@UBE?AVCSize@@PAVCDC@@H@Z @ 2289 NONAME
	 ?GetCellSize@CHelpKeyGridRow@@UBE?AVCSize@@PAVCDC@@H@Z @ 2290 NONAME
	 ?GetCharSet@CTheApp@@QBEIPAH@Z @ 2291 NONAME
	 ?GetCheck@CCheckList@@UAEHH@Z @ 2292 NONAME
	 ?GetCheck@CPropCheckList@@MAEHH@Z @ 2293 NONAME
	 ?GetChildRect@CPaletteWnd@@SAXAAVCRect@@@Z @ 2294 NONAME
	 ?GetCmdDescription@@YAXIAAVCString@@@Z @ 2295 NONAME
	 ?GetCmdIDs@CProjSlob@@UAEXAAVCWordArray@@0@Z @ 2296 NONAME
	 ?GetCmdKeyString@@YAHIAAVCString@@@Z @ 2297 NONAME
	 ?GetCmdKeyStringAll@@YAHIAAVCString@@@Z @ 2298 NONAME
	 ?GetColumnRect@CGridControlRow@@QAEXHAAVCRect@@@Z @ 2299 NONAME
	 ?GetColumnText@CStringListGridRow@@UAEXHAAVCString@@@Z @ 2300 NONAME
	 ?GetCommandBitmap@CTheApp@@QAEHIPAPAUHBITMAP__@@PAHHPAUCTE@@@Z @ 2301 NONAME
	 ?GetCommandBtnInfo@CTheApp@@QAEIIPAPAVCPackage@@@Z @ 2302 NONAME
	 ?GetCommandEntry@CCmdCache@@QAEPAUCTE@@I@Z @ 2303 NONAME
	 ?GetCommandID@CCmdCache@@QAEHPBDPAI@Z @ 2304 NONAME
	 ?GetCommandID@CTheApp@@QAEHPBDPAI@Z @ 2305 NONAME
	 ?GetCommandMenu@@YAPAUHMENU__@@H@Z @ 2306 NONAME
	 ?GetCommandName@CAppToolGroups@@QAEXIAAVCString@@@Z @ 2307 NONAME
	 ?GetCommandName@CTheApp@@QAEPBDG@Z @ 2308 NONAME
	 ?GetCommandName@CToolGroup@@QAEPBDI@Z @ 2309 NONAME
	 ?GetCommandProvider@CPackage@@UAEPAUICommandProvider@@XZ @ 2310 NONAME
	 ?GetCommandString@CCmdCache@@QAEHIIPAPBDPAGPAUCTE@@@Z @ 2311 NONAME
	 ?GetCommandString@CPackage@@UAEPBDII@Z @ 2312 NONAME
	 ?GetCompCatCLSID@CBuilderWizardManager@@IAEHPAUHKEY__@@KPAU_GUID@@@Z @ 2313 NONAME
	 ?GetComponentID@CMainFrame@@QAEKXZ @ 2314 NONAME
	 ?GetComponentMgr@CMainFrame@@QAEPAUIMsoComponentManager@@XZ @ 2315 NONAME
	 ?GetConnectionMap@CApplication@@MBEPBUAFX_CONNECTIONMAP@@XZ @ 2316 NONAME
	 ?GetContainer@XMyOleClientSite@CIPCompContainerItem@@UAGJPAPAUIOleContainer@@@Z @ 2317 NONAME
	 ?GetContentList@CClipboardSlob@@UAEPAVCObList@@XZ @ 2318 NONAME
	 ?GetContentList@CMultiSlob@@UAEPAVCObList@@XZ @ 2319 NONAME
	 ?GetContentList@CSlob@@UAEPAVCObList@@XZ @ 2320 NONAME
	 ?GetContentList@CUndoSlob@@UAEPAVCObList@@XZ @ 2321 NONAME
	 ?GetControl@CASBar@@UAEPAUHWND__@@I@Z @ 2322 NONAME
	 ?GetControl@CCustomBar@@UAEPAUHWND__@@I@Z @ 2323 NONAME
	 ?GetControl@CSheetWnd@@QAEPAVCWnd@@I@Z @ 2324 NONAME
	 ?GetControlBuilderType@COleAllPage@@IAE?AW4ControlType@@JPAUIDispatch@@@Z @ 2325 NONAME
	 ?GetControlMap@COleAllPage@@MAEPAUCControlMap@@XZ @ 2326 NONAME
	 ?GetControlMap@CSlobPage@@UAEPAUCControlMap@@XZ @ 2327 NONAME
	 ?GetCount@CAutoCollection@@IAEJXZ @ 2328 NONAME
	 ?GetCount@CAutoDocuments@@IAEJXZ @ 2329 NONAME
	 ?GetCount@CAutoProjects@@IAEJXZ @ 2330 NONAME
	 ?GetCount@CAutoWindows@@IAEJXZ @ 2331 NONAME
	 ?GetCount@CCustomBarProxy@@UBEHXZ @ 2332 NONAME
	 ?GetCount@CMenuPopupProxy@@UBEHXZ @ 2333 NONAME
	 ?GetCount@CStringListGridWnd@@QBEHXZ @ 2334 NONAME
	 ?GetCPLInt@CCPLReg@@AAEIKH@Z @ 2335 NONAME
	 ?GetCPLString@CCPLReg@@AAE?AVCString@@KPBD@Z @ 2336 NONAME
	 ?GetCurrentAssignment@CKeyCustDlg@@QAEHPAVCKeymap@@AAVCString@@@Z @ 2337 NONAME
	 ?GetCurrentDirectoryA@CApplication@@QAEPAGXZ @ 2338 NONAME
	 ?GetCurrentLogFont@CFCDialogState@@QBEPAUtagLOGFONTA@@XZ @ 2339 NONAME
	 ?GetCurrentPropertyPage@@YAPAVC3dPropertyPage@@XZ @ 2340 NONAME
	 ?GetCurrentRegexHintTable@@YAPAPBDXZ @ 2341 NONAME
	 ?GetCurSel@CStringListGridWnd@@QBEHXZ @ 2342 NONAME
	 ?GetCurSel@CTreeCtl@@QAEHXZ @ 2343 NONAME
	 ?GetCursor@CMultiSlob@@UAEPAUHICON__@@H@Z @ 2344 NONAME
	 ?GetCursor@CSlob@@UAEPAUHICON__@@H@Z @ 2345 NONAME
	 ?GetCursorIndex@CMultiSlob@@UAEHXZ @ 2346 NONAME
	 ?GetCursorIndex@CSlob@@UAEHXZ @ 2347 NONAME
	 ?GetCurToolObject@CToolList@@QAEPAVCTool@@XZ @ 2348 NONAME
	 ?GetCustomID@CDockManager@@QAEIXZ @ 2349 NONAME
	 ?GetCustomizer@CASBar@@UAEPAVCToolCustomizer@@XZ @ 2350 NONAME
	 ?GetCustomizer@CChoiceBar@@UAEPAVCToolCustomizer@@XZ @ 2351 NONAME
	 ?GetData@CBMenuPopup@@QAEPAXXZ @ 2352 NONAME
	 ?GetData@CToolBarProxy@@QAEPAXXZ @ 2353 NONAME
	 ?GetData@CTreeCtl@@QAEKH@Z @ 2354 NONAME
	 ?GetDebugger@CApplication@@QAEPAUIDispatch@@XZ @ 2355 NONAME
	 ?GetDefaultBitmapSize@CCustomBar@@SA?AVCSize@@H@Z @ 2356 NONAME
	 ?GetDefaultBitmapSize@COldToolBar@@SA?AVCSize@@XZ @ 2357 NONAME
	 ?GetDefaultButtonSize@CCustomBar@@SA?AVCSize@@H@Z @ 2358 NONAME
	 ?GetDefaultButtonSize@COldToolBar@@SA?AVCSize@@XZ @ 2359 NONAME
	 ?GetDefaultCompCatCLSID@CBuilderWizardManager@@IAEHPAUHKEY__@@PAU_GUID@@@Z @ 2360 NONAME
	 ?GetDefaultFormatInfo@CPackage@@UAEXAAVCFormatInfo@@@Z @ 2361 NONAME
	 ?GetDefaultTitle@CPartDoc@@MAEPBDXZ @ 2362 NONAME
	 ?GetDefMin@CDockWorker@@SA?AVCPoint@@XZ @ 2363 NONAME
	 ?GetDefProvidedNodes@CPackage@@UAEXAAVCPtrList@@H@Z @ 2364 NONAME
	 ?GetDepth@@YAHPAUTERROR@@@Z @ 2365 NONAME
	 ?GetDescription@COleParentUndoUnit@@UAGJPAPAG@Z @ 2366 NONAME
	 ?GetDescription@COleUndoUnit@@UAGJPAPAG@Z @ 2367 NONAME
	 ?GetDeskRects@CDockManager@@QAEXAAVCRect@@0@Z @ 2368 NONAME
	 ?GetDisabledMenuArrow@CCustomBar@@IAEPAUHBITMAP__@@W4ORIENTATION@@@Z @ 2369 NONAME
	 ?GetDispatchMap@CApplication@@MBEPBUAFX_DISPMAP@@XZ @ 2370 NONAME
	 ?GetDispatchMap@CAutoCollection@@MBEPBUAFX_DISPMAP@@XZ @ 2371 NONAME
	 ?GetDispatchMap@CAutoDocumentDefault@@MBEPBUAFX_DISPMAP@@XZ @ 2372 NONAME
	 ?GetDispatchMap@CAutoDocuments@@MBEPBUAFX_DISPMAP@@XZ @ 2373 NONAME
	 ?GetDispatchMap@CAutoProjects@@MBEPBUAFX_DISPMAP@@XZ @ 2374 NONAME
	 ?GetDispatchMap@CAutoWindowDefault@@MBEPBUAFX_DISPMAP@@XZ @ 2375 NONAME
	 ?GetDispatchMap@CAutoWindows@@MBEPBUAFX_DISPMAP@@XZ @ 2376 NONAME
	 ?GetDisplayFile@@YAHAAVCString@@PAVCDC@@AAH@Z @ 2377 NONAME
	 ?GetDisplayName@@YA?AVCString@@PBDH0@Z @ 2378 NONAME
	 ?GetDisplayNameString@CPath@@QBEXAAVCString@@HH@Z @ 2379 NONAME
	 ?GetDisplayText@CCheckList@@MAEXHPAVCDC@@ABVCRect@@AAVCString@@@Z @ 2380 NONAME
	 ?GetDisplayText@CTreeCtl@@UAEXPAVCNode@@AAVCString@@@Z @ 2381 NONAME
	 ?GetDlgTabPos@CTabbedDialog@@IAE?AVCPoint@@XZ @ 2382 NONAME
	 ?GetDock@CDockManager@@QAEPAVCDockWnd@@W4DOCKPOS@@@Z @ 2383 NONAME
	 ?GetDockableIcon@CPackage@@UAEPAUHICON__@@I@Z @ 2384 NONAME
	 ?GetDockableWindow@CPackage@@UAEPAUHWND__@@IPAX@Z @ 2385 NONAME
	 ?GetDockableWindow@CVshellPackage@@UAEPAUHWND__@@IPAX@Z @ 2386 NONAME
	 ?GetDockInfo@CDockWnd@@QAEXPAU_DWI@@PAVCWnd@@@Z @ 2387 NONAME
	 ?GetDockInfo@CPackage@@UAEPAXXZ @ 2388 NONAME
	 ?GetDockInfo@CVshellPackage@@UAEPAXXZ @ 2389 NONAME
	 ?GetDockRestore@CDockWnd@@QAEXPAUDOCKRESTORE@@PAVCWnd@@@Z @ 2390 NONAME
	 ?GetDocLong@CPartDoc@@UAEJH@Z @ 2391 NONAME
	 ?GetDocString@CPartDoc@@UBEHAAVCString@@W4DocStringIndex@CDocTemplate@@@Z @ 2392 NONAME
	 ?GetDocTemplate@CPartView@@UAEPAVCPartTemplate@@XZ @ 2393 NONAME
	 ?GetDocument@CDocObjectView@@QAEPAVCDocObjectDoc@@XZ @ 2394 NONAME
	 ?GetDocuments@CApplication@@QAEPAUIDispatch@@XZ @ 2395 NONAME
	 ?GetDominant@CMultiSlob@@QBEPAVCSlob@@XZ @ 2396 NONAME
	 ?GetDoubleProp@CMultiSlob@@UAE?AW4GPT@@IAAN@Z @ 2397 NONAME
	 ?GetDoubleProp@CSlob@@UAE?AW4GPT@@IAAN@Z @ 2398 NONAME
	 ?GetDropButton@CToolCustomizer@@IAEXVCPoint@@PAPAVCToolBarProxy@@PAHPAVCRect@@PAW4ORIENTATION@@PAI@Z @ 2399 NONAME
	 ?GetDroppedRect@@YAXPAUHWND__@@PAUtagRECT@@@Z @ 2400 NONAME
	 ?GetDynamicCmdString@CPackage@@UAEPAGII@Z @ 2401 NONAME
	 ?GetEditDebugStatus@CIdeInterface@@QAEPAUIEditDebugStatus@@XZ @ 2402 NONAME
	 ?GetEditorID@CPartView@@UAEHPAU_GUID@@@Z @ 2403 NONAME
	 ?GetEditSlob@CPartView@@UAEPAVCSlob@@XZ @ 2404 NONAME
	 ?GetElementList@CFormatInfo@@QBEPAUFMT_ELEMENT@@PBD@Z @ 2405 NONAME
	 ?GetElementsIntoArray@CIPCompSlob@@IAEHPAUIUnknown@@PAVCPtrArray@@@Z @ 2406 NONAME
	 ?GetElementText@CShellAction@@IBEXAAVCString@@PBD@Z @ 2407 NONAME
	 ?GetEllipseWidth@@YAHXZ @ 2408 NONAME
	 ?GetErrors@CApplication@@QAEJXZ @ 2409 NONAME
	 ?GetErrorWarningCount@CConsoleSpawner@@QAEXPAK0@Z @ 2410 NONAME
	 ?GetExecutableProperty@CTheApp@@UAEII@Z @ 2411 NONAME
	 ?GetExePlatform@@YAIPBD@Z @ 2412 NONAME
	 ?GetExeType@@YA?AW4EXT@@PBDPAG@Z @ 2413 NONAME
	 ?GetExpansionConstraint@CCustomBar@@QAEIABVCRect@@PAW4ORIENTATION@@H@Z @ 2414 NONAME
	 ?GetExpansionConstraint@CCustomBarProxy@@UAEIABVCRect@@PAW4ORIENTATION@@@Z @ 2415 NONAME
	 ?GetExpansionConstraint@CMenuPopupProxy@@UAEIABVCRect@@PAW4ORIENTATION@@@Z @ 2416 NONAME
	 ?GetExpectedHeight@CDropControl@@SAHXZ @ 2417 NONAME
	 ?GetExpectedWidth@CDropControl@@SAHXZ @ 2418 NONAME
	 ?GetExtension@@YA?AVCString@@PBD@Z @ 2419 NONAME
	 ?GetExtension@CPath@@QBEPBDXZ @ 2420 NONAME
	 ?GetExtensionCase@@YAPBDPBD0@Z @ 2421 NONAME
	 ?GetExtHelpFile@@YAHAAVCString@@@Z @ 2422 NONAME
	 ?GetFileChange@@YAPAVCFileChange@@XZ @ 2423 NONAME
	 ?GetFileError@@YAHXZ @ 2424 NONAME
	 ?GetFileName@CFileNewTabbedDialog@@QBE?AVCString@@XZ @ 2425 NONAME
	 ?GetFilePath@CSlob@@UBEPBVCPath@@XZ @ 2426 NONAME
	 ?GetFileRegHandle@CSlob@@UBEPAVCFileRegEntry@@XZ @ 2427 NONAME
	 ?GetFileSaveCallback@CDefProvidedNode@@UAEP6GHXZXZ @ 2428 NONAME
	 ?GetFileTime@CPath@@QAEHAAVCString@@K@Z @ 2429 NONAME
	 ?GetFileTime@CPath@@QAEHPAU_FILETIME@@@Z @ 2430 NONAME
	 ?GetFilterDescription@@YA?AVCString@@PBD@Z @ 2431 NONAME
	 ?GetFilterExtension@C3dFileDialog@@QAEPBDH@Z @ 2432 NONAME
	 ?GetFindReplaceFlags@CPartView@@UAEHPAK0@Z @ 2433 NONAME
	 ?GetFindSelectionRect@CPartView@@UAEHPAVCRect@@@Z @ 2434 NONAME
	 ?GetFindString@CPartView@@UAEHAAVCString@@@Z @ 2435 NONAME
	 ?GetFirst@CElList@@QAEPAUFMT_ELEMENT@@IAAVCFmtElementIterator@@HH@Z @ 2436 NONAME
	 ?GetFirst@CElList@@QAEPAUFMT_ELEMENT@@PADAAVCFmtElementIterator@@HH@Z @ 2437 NONAME
	 ?GetFirstChildWindowWithID@@YAPAVCPartView@@PAUHWND__@@HH@Z @ 2438 NONAME
	 ?GetFirstPack@CCmdCache@@QAEPAVCPack@@I@Z @ 2439 NONAME
	 ?GetFirstPack@CTE@@QAEPAVCPack@@XZ @ 2440 NONAME
	 ?GetFloatRect@CDockWorker@@IAEXAAVCRect@@@Z @ 2441 NONAME
	 ?GetFloatSize@CDockWorker@@IAE?AVCSize@@XZ @ 2442 NONAME
	 ?GetFont@CNode@@UBEPAVCFont@@XZ @ 2443 NONAME
	 ?GetFont@CWnd@@QBEPAVCFont@@XZ @ 2444 NONAME
	 ?GetForeColor@CFCDialogState@@QAEKXZ @ 2445 NONAME
	 ?GetFormatInfo@CFormatInfo@@QAEHPAVCPackage@@@Z @ 2446 NONAME
	 ?GetFormatInfo@CPackage@@UAEPAVCFormatInfo@@XZ @ 2447 NONAME
	 ?GetFullFileStartPosition@C3dFileDialog@@QAEPAU__POSITION@@XZ @ 2448 NONAME
	 ?GetFullHelpFile@@YAXPBDAAVCString@@@Z @ 2449 NONAME
	 ?GetFullName@CApplication@@QAEPAGXZ @ 2450 NONAME
	 ?GetFullName@CAutoDocumentDefault@@IAEPAGXZ @ 2451 NONAME
	 ?GetFullName@CPartDoc@@IAEPAGXZ @ 2452 NONAME
	 ?GetGlobalWorkspaceInfoText@CPackage@@UAEPBDXZ @ 2453 NONAME
	 ?GetGlyphHeight@CNode@@UAEHXZ @ 2454 NONAME
	 ?GetGlyphTipText@CProjSlob@@UAEXAAVCString@@@Z @ 2455 NONAME
	 ?GetGlyphWidth@CNode@@UAEHXZ @ 2456 NONAME
	 ?GetGrid@CGridCell@@UBEPAVCGridWnd@@XZ @ 2457 NONAME
	 ?GetGrid@CGridRow@@UBEPAVCGridWnd@@XZ @ 2458 NONAME
	 ?GetHeadPosition@CEnum@@UAEPAU__POSITION@@XZ @ 2459 NONAME
	 ?GetHeadPosition@CLocalizedEnum@@UAEPAU__POSITION@@XZ @ 2460 NONAME
	 ?GetHeadRowPosition@CGridWnd@@QBEPAU__POSITION@@XZ @ 2461 NONAME
	 ?GetHeadSlobWndPosition@CSlobWnd@@SAPAU__POSITION@@XZ @ 2462 NONAME
	 ?GetHeight@CApplication@@QAEJXZ @ 2463 NONAME
	 ?GetHeight@CAutoWindowDefault@@IAEJXZ @ 2464 NONAME
	 ?GetHeight@CBMenuItem@@QAEHPAVCDC@@@Z @ 2465 NONAME
	 ?GetHeight@CBMenuPopup@@QAEHXZ @ 2466 NONAME
	 ?GetHeight@CPartFrame@@QAEJXZ @ 2467 NONAME
	 ?GetHelpDir@@YAXAAVCString@@@Z @ 2468 NONAME
	 ?GetHelpFileName@CPackage@@UAEPBDW4HELPFILE_TYPE@1@@Z @ 2469 NONAME
	 ?GetHelpID@CDefProvidedNode@@UAEIXZ @ 2470 NONAME
	 ?GetHelpID@CDlgTab@@MAEIXZ @ 2471 NONAME
	 ?GetHelpID@CFloatingFrameWnd@@UAEKXZ @ 2472 NONAME
	 ?GetHelpID@CPacket@@UAEKXZ @ 2473 NONAME
	 ?GetHelpID@CPartView@@UAEKXZ @ 2474 NONAME
	 ?GetHelpIDs@CMessageBox@@MAEPBKXZ @ 2475 NONAME
	 ?GetHelpInterface@@YAPAUIVsHelpSystem@@H@Z @ 2476 NONAME
	 ?GetHelpWord@CPartView@@UAEHAAVCString@@@Z @ 2477 NONAME
	 ?GetHID@@YAHPAUHWND__@@0PAPAU1@PAK@Z @ 2478 NONAME
	 ?GetHitZone@CGridCaptionCell@@QAE?AW4HitZone@1@ABVCPoint@@@Z @ 2479 NONAME
	 ?GetHSize@CASBar@@UAE?AVCSize@@W4ORIENTATION@@@Z @ 2480 NONAME
	 ?GetHSize@CCustomBar@@UAE?AVCSize@@W4ORIENTATION@@@Z @ 2481 NONAME
	 ?GetIcon@CAddOn@@UAEPAUHICON__@@XZ @ 2482 NONAME
	 ?GetIcon@CDocObjectTemplate@@UAEPAUHICON__@@XZ @ 2483 NONAME
	 ?GetIcon@CFileNewWizardTemplate@@UAEPAUHICON__@@XZ @ 2484 NONAME
	 ?GetIcon@CIconList@@UAEPAUHICON__@@H@Z @ 2485 NONAME
	 ?GetIcon@CPartTemplate@@UAEPAUHICON__@@XZ @ 2486 NONAME
	 ?GetIcon@CProjTypeIconList@@UAEPAUHICON__@@H@Z @ 2487 NONAME
	 ?GetIcon@CProjTypeList@@UAEPAUHICON__@@H@Z @ 2488 NONAME
	 ?GetIconID@CMessageBox@@IAEPBDG@Z @ 2489 NONAME
	 ?GetIconID@CPartTemplate@@UBEIXZ @ 2490 NONAME
	 ?GetIDispatch@CIPCompContainerItem@@QAEPAUIDispatch@@XZ @ 2491 NONAME
	 ?GetIDispatch@XAutomationItems@CVshellPackage@@UAGJPBDPAPAUIDispatch@@@Z @ 2492 NONAME
	 ?GetIdRange@CPackage@@UAEKW4RANGE_TYPE@1@@Z @ 2493 NONAME
	 ?GetIDsOfNames@CMyOleDispatchImpl@@UAGJABU_GUID@@PAPAGIKPAJ@Z @ 2494 NONAME
	 ?GetIDsOfNames@XAmbientDispatch@CIPCompContainerItem@@UAGJABU_GUID@@PAPAGIKPAJ@Z @ 2495 NONAME
	 ?GetIDsOfNames@XApplication@CApplication@@EAGJABU_GUID@@PAPAGIKPAJ@Z @ 2496 NONAME
	 ?GetIDsOfNames@XDocuments@CAutoDocuments@@EAGJABU_GUID@@PAPAGIKPAJ@Z @ 2497 NONAME
	 ?GetIDsOfNames@XDualObjs@CAutoCollection@@EAGJABU_GUID@@PAPAGIKPAJ@Z @ 2498 NONAME
	 ?GetIDsOfNames@XGenericDocument@CAutoDocumentDefault@@EAGJABU_GUID@@PAPAGIKPAJ@Z @ 2499 NONAME
	 ?GetIDsOfNames@XGenericWindow@CAutoWindowDefault@@EAGJABU_GUID@@PAPAGIKPAJ@Z @ 2500 NONAME
	 ?GetIDsOfNames@XProjects@CAutoProjects@@EAGJABU_GUID@@PAPAGIKPAJ@Z @ 2501 NONAME
	 ?GetIDsOfNames@XWindows@CAutoWindows@@EAGJABU_GUID@@PAPAGIKPAJ@Z @ 2502 NONAME
	 ?GetIID@XApplicationCP@CApplication@@UAEABU_GUID@@XZ @ 2503 NONAME
	 ?GetIID@XDispApplicationCP@CApplication@@UAEABU_GUID@@XZ @ 2504 NONAME
	 ?GetImageIndex@CCustomBarProxy@@UBEHH@Z @ 2505 NONAME
	 ?GetImageIndex@CMenuPopupProxy@@UBEHH@Z @ 2506 NONAME
	 ?GetImageSize@CCustomBarProxy@@UBE?BVCSize@@XZ @ 2507 NONAME
	 ?GetImageSize@CMenuPopupProxy@@UBE?BVCSize@@XZ @ 2508 NONAME
	 ?GetImageWell@CCustomBarProxy@@UAEPAUHBITMAP__@@H@Z @ 2509 NONAME
	 ?GetImageWell@CMenuPopupProxy@@UAEPAUHBITMAP__@@H@Z @ 2510 NONAME
	 ?GetIndex@CAutoWindowDefault@@IAEJXZ @ 2511 NONAME
	 ?GetIndex@CPartFrame@@QAEJXZ @ 2512 NONAME
	 ?GetInitData@CInitFile@@QAEPAXXZ @ 2513 NONAME
	 ?GetInitData@CPartFrame@@UAEPAEXZ @ 2514 NONAME
	 ?GetInitData@CPartView@@UAEPAEXZ @ 2515 NONAME
	 ?GetInitData@CTreeCtl@@QAEPAEXZ @ 2516 NONAME
	 ?GetInitialAppearance@CCustomBarProxy@@UAE?AW4APPEARANCE@@I@Z @ 2517 NONAME
	 ?GetInitialAppearance@CMenuPopupProxy@@UAE?AW4APPEARANCE@@I@Z @ 2518 NONAME
	 ?GetInterfaceMap@CApplication@@MBEPBUAFX_INTERFACEMAP@@XZ @ 2519 NONAME
	 ?GetInterfaceMap@CAutoCollection@@MBEPBUAFX_INTERFACEMAP@@XZ @ 2520 NONAME
	 ?GetInterfaceMap@CAutoDocumentDefault@@MBEPBUAFX_INTERFACEMAP@@XZ @ 2521 NONAME
	 ?GetInterfaceMap@CAutoDocuments@@MBEPBUAFX_INTERFACEMAP@@XZ @ 2522 NONAME
	 ?GetInterfaceMap@CAutoProjects@@MBEPBUAFX_INTERFACEMAP@@XZ @ 2523 NONAME
	 ?GetInterfaceMap@CAutoWindowDefault@@MBEPBUAFX_INTERFACEMAP@@XZ @ 2524 NONAME
	 ?GetInterfaceMap@CAutoWindows@@MBEPBUAFX_INTERFACEMAP@@XZ @ 2525 NONAME
	 ?GetInterfaceMap@CBuilderWizardManager@@MBEPBUAFX_INTERFACEMAP@@XZ @ 2526 NONAME
	 ?GetInterfaceMap@CDocObjectContainerItem@@MBEPBUAFX_INTERFACEMAP@@XZ @ 2527 NONAME
	 ?GetInterfaceMap@CDocObjectFrameHook@@MBEPBUAFX_INTERFACEMAP@@XZ @ 2528 NONAME
	 ?GetInterfaceMap@CEnumVariantObjs@@MBEPBUAFX_INTERFACEMAP@@XZ @ 2529 NONAME
	 ?GetInterfaceMap@CInternalTrackSelection@@MBEPBUAFX_INTERFACEMAP@@XZ @ 2530 NONAME
	 ?GetInterfaceMap@CIPCompBuilderWizardManager@@MBEPBUAFX_INTERFACEMAP@@XZ @ 2531 NONAME
	 ?GetInterfaceMap@CIPCompContainerItem@@MBEPBUAFX_INTERFACEMAP@@XZ @ 2532 NONAME
	 ?GetInterfaceMap@CIPCompFrameHook@@MBEPBUAFX_INTERFACEMAP@@XZ @ 2533 NONAME
	 ?GetInterfaceMap@CIPCompHostApp@@MBEPBUAFX_INTERFACEMAP@@XZ @ 2534 NONAME
	 ?GetInterfaceMap@CIPCompMainFrame@@MBEPBUAFX_INTERFACEMAP@@XZ @ 2535 NONAME
	 ?GetInterfaceMap@CIPCompMessageFilter@@MBEPBUAFX_INTERFACEMAP@@XZ @ 2536 NONAME
	 ?GetInterfaceMap@COleAllPage@@MBEPBUAFX_INTERFACEMAP@@XZ @ 2537 NONAME
	 ?GetInterfaceMap@COlePage@@MBEPBUAFX_INTERFACEMAP@@XZ @ 2538 NONAME
	 ?GetInterfaceMap@COleTrackSelection@@MBEPBUAFX_INTERFACEMAP@@XZ @ 2539 NONAME
	 ?GetInterfaceMap@CVshellPackage@@MBEPBUAFX_INTERFACEMAP@@XZ @ 2540 NONAME
	 ?GetInternalSelectList@CInternalTrackSelection@@IAEJPAUtagCALPOLESTR@@PAUtagCADWORD@@@Z @ 2541 NONAME
	 ?GetInternalSelectList@CIPCompDoc@@UAEJPAUISelectionContainer@@PAUtagCALPOLESTR@@PAUtagCADWORD@@@Z @ 2542 NONAME
	 ?GetInternalSelectList@CIPCompSlob@@QAEJPAUtagCALPOLESTR@@PAUtagCADWORD@@@Z @ 2543 NONAME
	 ?GetInternalSelectList@XInternalTrackSelection@CInternalTrackSelection@@UAGJPAUtagCALPOLESTR@@PAUtagCADWORD@@@Z @ 2544 NONAME
	 ?GetInternalTrackSelection@CIPCompSlob@@QAEJPAPAUIInternalTrackSelection@@@Z @ 2545 NONAME
	 ?GetIntProp@CMultiSlob@@UAE?AW4GPT@@IAAH@Z @ 2546 NONAME
	 ?GetIntProp@CSlob@@UAE?AW4GPT@@IAAH@Z @ 2547 NONAME
	 ?GetIntrinsicBuilder@CTheApp@@QAEJABU_GUID@@KPAUHWND__@@PAPAUIDispatch@@PAPAU3@0PAPAUIUnknown@@@Z @ 2548 NONAME
	 ?GetIOleComponentUIManager@CIPCompFrameHook@@QAEPAUIOleComponentUIManager@@XZ @ 2549 NONAME
	 ?GetIOleInPlaceComponentSite@CIPCompContainerItem@@QAEPAUIOleInPlaceComponentSite@@XZ @ 2550 NONAME
	 ?GetIOleInPlaceComponentUIManager@CIPCompFrameHook@@QAEPAUIOleInPlaceComponentUIManager@@XZ @ 2551 NONAME
	 ?GetIOleInPlaceSite@CDocObjectContainerItem@@QAEPAUIOleInPlaceSite@@XZ @ 2552 NONAME
	 ?GetIOleInPlaceSite@CIPCompContainerItem@@QAEPAUIOleInPlaceSite@@XZ @ 2553 NONAME
	 ?GetItemData@CFontNameCombo@@QBEKH@Z @ 2554 NONAME
	 ?GetItemData@CStringListGridWnd@@QBEKH@Z @ 2555 NONAME
	 ?GetItemDataPtr@CProjTypeList@@QAEPAXH@Z @ 2556 NONAME
	 ?GetItemDataPtr@CStringListGridWnd@@QBEPAXH@Z @ 2557 NONAME
	 ?GetItemGlyph@CStringListGridWnd@@QBEHH@Z @ 2558 NONAME
	 ?GetItemID@COldStatusBar@@QBEIH@Z @ 2559 NONAME
	 ?GetItemID@COldToolBar@@QBEIH@Z @ 2560 NONAME
	 ?GetItemMenu@CCustomBar@@UAEPAVCBMenuPopup@@H@Z @ 2561 NONAME
	 ?GetItemRect@CBMenuPopup@@QAE?AVCRect@@H@Z @ 2562 NONAME
	 ?GetItemRect@CCustomBar@@UBEXHPAUtagRECT@@W4ORIENTATION@@@Z @ 2563 NONAME
	 ?GetItemRect@CCustomBarProxy@@UBEXHPAUtagRECT@@@Z @ 2564 NONAME
	 ?GetItemRect@CMenuPopupProxy@@UBEXHPAUtagRECT@@@Z @ 2565 NONAME
	 ?GetItemRect@COldStatusBar@@QBEXHPAUtagRECT@@@Z @ 2566 NONAME
	 ?GetItemRect@COldToolBar@@UBEXHPAUtagRECT@@W4ORIENTATION@@@Z @ 2567 NONAME
	 ?GetItemsRect@CBMenuPopup@@QAEXPAVCRect@@@Z @ 2568 NONAME
	 ?GetKeyCodeFromName@@YAGPBDPAH@Z @ 2569 NONAME
	 ?GetKeymap@CPartView@@UAEPAVCKeymap@@XZ @ 2570 NONAME
	 ?GetKeyName@CKeymap@@SAXGGAAVCString@@@Z @ 2571 NONAME
	 ?GetLanguageName@CPartDoc@@UAEJPAPAG@Z @ 2572 NONAME
	 ?GetLargeMenuButtons@GLOBAL_DATA@@QAEHXZ @ 2573 NONAME
	 ?GetLastRedoDescription@COleUndoManager@@UAGJPAPAG@Z @ 2574 NONAME
	 ?GetLastSlash@@YAPBDPBD@Z @ 2575 NONAME
	 ?GetLastUndoDescription@COleUndoManager@@UAGJPAPAG@Z @ 2576 NONAME
	 ?GetLBText@CFontNameCombo@@QBEHHPAD@Z @ 2577 NONAME
	 ?GetLBText@CFontNameCombo@@QBEXHAAVCString@@@Z @ 2578 NONAME
	 ?GetLeft@CApplication@@QAEJXZ @ 2579 NONAME
	 ?GetLeft@CAutoWindowDefault@@IAEJXZ @ 2580 NONAME
	 ?GetLeft@CPartFrame@@QAEJXZ @ 2581 NONAME
	 ?GetLeftBorder@CCustomBar@@IBEHW4ORIENTATION@@@Z @ 2582 NONAME
	 ?GetLeftMDIArea@CCustomBar@@IBEHW4ORIENTATION@@@Z @ 2583 NONAME
	 ?GetLevelComboHeight@CSheetWnd@@QAEHXZ @ 2584 NONAME
	 ?GetLinear@CFmtElementIterator@@QAEPAUFMT_ELEMENT@@XZ @ 2585 NONAME
	 ?GetLinear@CFmtGroupIterator@@QAEPAUFMT_WINGROUP@@XZ @ 2586 NONAME
	 ?GetLinear@CFmtWindowIterator@@QAEPAUFMT_WINDOW@@XZ @ 2587 NONAME
	 ?GetListBox@CTreeCtl@@UAEPAVCListBox@@XZ @ 2588 NONAME
	 ?GetLocaleID@XPropertyPageSite@COlePage@@UAGJPAK@Z @ 2589 NONAME
	 ?GetLogFont@CFormatInfo@@SAHPAULOGFONTSEARCH@@@Z @ 2590 NONAME
	 ?GetLongProp@CMultiSlob@@UAE?AW4GPT@@IAAJ@Z @ 2591 NONAME
	 ?GetLongProp@CSlob@@UAE?AW4GPT@@IAAJ@Z @ 2592 NONAME
	 ?GetMacRec@CShellRecorder@@MBEPAUIMacroRecorder@@XZ @ 2593 NONAME
	 ?GetMargins@CTabbedDialog@@MAEXAAVCRect@@@Z @ 2594 NONAME
	 ?GetMaxLevels@CUndoSlob@@QBEHXZ @ 2595 NONAME
	 ?GetMaxState@CDockWnd@@QAE?AW4MAX_STATE@@PAVCWnd@@@Z @ 2596 NONAME
	 ?GetMaxState@CDockWorker@@QAE?AW4MAX_STATE@@XZ @ 2597 NONAME
	 ?GetMDIButtonRects@CCustomBar@@IAEXQAVCRect@@@Z @ 2598 NONAME
	 ?GetMenu@CCmdCache@@QAEPAVCBMenuPopup@@I@Z @ 2599 NONAME
	 ?GetMenuArrow@CCustomBar@@IAEPAUHBITMAP__@@W4ORIENTATION@@@Z @ 2600 NONAME
	 ?GetMenuArrow@GLOBAL_DATA@@QAEPAUHBITMAP__@@XZ @ 2601 NONAME
	 ?GetMenuArrowDisabled@GLOBAL_DATA@@QAEPAUHBITMAP__@@XZ @ 2602 NONAME
	 ?GetMenuArrowVertical@GLOBAL_DATA@@QAEPAUHBITMAP__@@XZ @ 2603 NONAME
	 ?GetMenuArrowVerticalDisabled@GLOBAL_DATA@@QAEPAUHBITMAP__@@XZ @ 2604 NONAME
	 ?GetMenuDescriptor@CPackage@@UAEPAUPOPDESC@@I@Z @ 2605 NONAME
	 ?GetMenuDescriptor@CVshellPackage@@UAEPAUPOPDESC@@I@Z @ 2606 NONAME
	 ?GetMenuFont@CBMenuPopup@@SAPAVCFont@@H@Z @ 2607 NONAME
	 ?GetMenuFont@GLOBAL_DATA@@QAEPAVCFont@@H@Z @ 2608 NONAME
	 ?GetMenuIndexForCommand@CBMenuPopup@@QBEHI@Z @ 2609 NONAME
	 ?GetMenuItem@CBMenuPopup@@QAEPAVCBMenuItem@@H@Z @ 2610 NONAME
	 ?GetMenuItemID@CBMenuPopup@@QAEIH@Z @ 2611 NONAME
	 ?GetMenuStringA@CBMenuPopup@@QBEHIAAVCString@@I@Z @ 2612 NONAME
	 ?GetMenuTextHeight@GLOBAL_DATA@@QAEHXZ @ 2613 NONAME
	 ?GetMenuVerticalFont@GLOBAL_DATA@@QAEPAVCFont@@XZ @ 2614 NONAME
	 ?GetMenuVerticalHeight@GLOBAL_DATA@@QAEHXZ @ 2615 NONAME
	 ?GetMessageMap@C3dBitmapButton@@MBEPBUAFX_MSGMAP@@XZ @ 2616 NONAME
	 ?GetMessageMap@C3dDialog@@MBEPBUAFX_MSGMAP@@XZ @ 2617 NONAME
	 ?GetMessageMap@C3dDialogBar@@MBEPBUAFX_MSGMAP@@XZ @ 2618 NONAME
	 ?GetMessageMap@C3dFileDialog@@MBEPBUAFX_MSGMAP@@XZ @ 2619 NONAME
	 ?GetMessageMap@C3dFontDialog@@MBEPBUAFX_MSGMAP@@XZ @ 2620 NONAME
	 ?GetMessageMap@CAboutDlg@@MBEPBUAFX_MSGMAP@@XZ @ 2621 NONAME
	 ?GetMessageMap@CAddFilesDialog@@MBEPBUAFX_MSGMAP@@XZ @ 2622 NONAME
	 ?GetMessageMap@CApplication@@MBEPBUAFX_MSGMAP@@XZ @ 2623 NONAME
	 ?GetMessageMap@CASBar@@MBEPBUAFX_MSGMAP@@XZ @ 2624 NONAME
	 ?GetMessageMap@CAutoCollection@@MBEPBUAFX_MSGMAP@@XZ @ 2625 NONAME
	 ?GetMessageMap@CAutoDocumentDefault@@MBEPBUAFX_MSGMAP@@XZ @ 2626 NONAME
	 ?GetMessageMap@CAutoDocuments@@MBEPBUAFX_MSGMAP@@XZ @ 2627 NONAME
	 ?GetMessageMap@CAutoProjects@@MBEPBUAFX_MSGMAP@@XZ @ 2628 NONAME
	 ?GetMessageMap@CAutoWindowDefault@@MBEPBUAFX_MSGMAP@@XZ @ 2629 NONAME
	 ?GetMessageMap@CAutoWindows@@MBEPBUAFX_MSGMAP@@XZ @ 2630 NONAME
	 ?GetMessageMap@CBitmapWnd@@MBEPBUAFX_MSGMAP@@XZ @ 2631 NONAME
	 ?GetMessageMap@CBldWizSelectDlg@@MBEPBUAFX_MSGMAP@@XZ @ 2632 NONAME
	 ?GetMessageMap@CBMenuPopup@@MBEPBUAFX_MSGMAP@@XZ @ 2633 NONAME
	 ?GetMessageMap@CBorderBar@@MBEPBUAFX_MSGMAP@@XZ @ 2634 NONAME
	 ?GetMessageMap@CButtonDragListBox@@MBEPBUAFX_MSGMAP@@XZ @ 2635 NONAME
	 ?GetMessageMap@CButtonEdit@@MBEPBUAFX_MSGMAP@@XZ @ 2636 NONAME
	 ?GetMessageMap@CCheckList@@MBEPBUAFX_MSGMAP@@XZ @ 2637 NONAME
	 ?GetMessageMap@CColorCombo@@MBEPBUAFX_MSGMAP@@XZ @ 2638 NONAME
	 ?GetMessageMap@CCustomBar@@MBEPBUAFX_MSGMAP@@XZ @ 2639 NONAME
	 ?GetMessageMap@CCustomButtonDlg@@MBEPBUAFX_MSGMAP@@XZ @ 2640 NONAME
	 ?GetMessageMap@CCustomDialog@@MBEPBUAFX_MSGMAP@@XZ @ 2641 NONAME
	 ?GetMessageMap@CCustomizeToolsDialog@@MBEPBUAFX_MSGMAP@@XZ @ 2642 NONAME
	 ?GetMessageMap@CDialogArg@@MBEPBUAFX_MSGMAP@@XZ @ 2643 NONAME
	 ?GetMessageMap@CDlgTab@@MBEPBUAFX_MSGMAP@@XZ @ 2644 NONAME
	 ?GetMessageMap@CDockablePartView@@MBEPBUAFX_MSGMAP@@XZ @ 2645 NONAME
	 ?GetMessageMap@CDockWnd@@MBEPBUAFX_MSGMAP@@XZ @ 2646 NONAME
	 ?GetMessageMap@CDocObjectDoc@@MBEPBUAFX_MSGMAP@@XZ @ 2647 NONAME
	 ?GetMessageMap@CDocObjectFrame@@MBEPBUAFX_MSGMAP@@XZ @ 2648 NONAME
	 ?GetMessageMap@CDocObjectView@@MBEPBUAFX_MSGMAP@@XZ @ 2649 NONAME
	 ?GetMessageMap@CDropControl@@MBEPBUAFX_MSGMAP@@XZ @ 2650 NONAME
	 ?GetMessageMap@CEnumVariantObjs@@MBEPBUAFX_MSGMAP@@XZ @ 2651 NONAME
	 ?GetMessageMap@CFindCombo@@MBEPBUAFX_MSGMAP@@XZ @ 2652 NONAME
	 ?GetMessageMap@CFindStringDlg@@MBEPBUAFX_MSGMAP@@XZ @ 2653 NONAME
	 ?GetMessageMap@CFloatingFrameWnd@@MBEPBUAFX_MSGMAP@@XZ @ 2654 NONAME
	 ?GetMessageMap@CFontColorDlg@@MBEPBUAFX_MSGMAP@@XZ @ 2655 NONAME
	 ?GetMessageMap@CFontNameCombo@@MBEPBUAFX_MSGMAP@@XZ @ 2656 NONAME
	 ?GetMessageMap@CGhostListBox@@MBEPBUAFX_MSGMAP@@XZ @ 2657 NONAME
	 ?GetMessageMap@CGoToDialog@@MBEPBUAFX_MSGMAP@@XZ @ 2658 NONAME
	 ?GetMessageMap@CGridControlWnd@@MBEPBUAFX_MSGMAP@@XZ @ 2659 NONAME
	 ?GetMessageMap@CGridWnd@@MBEPBUAFX_MSGMAP@@XZ @ 2660 NONAME
	 ?GetMessageMap@CHelpKeyWnd@@MBEPBUAFX_MSGMAP@@XZ @ 2661 NONAME
	 ?GetMessageMap@CIdisFileDialog@@MBEPBUAFX_MSGMAP@@XZ @ 2662 NONAME
	 ?GetMessageMap@CIPCompDoc@@MBEPBUAFX_MSGMAP@@XZ @ 2663 NONAME
	 ?GetMessageMap@CIPCompView@@MBEPBUAFX_MSGMAP@@XZ @ 2664 NONAME
	 ?GetMessageMap@CKeyCustDlg@@MBEPBUAFX_MSGMAP@@XZ @ 2665 NONAME
	 ?GetMessageMap@CMainFrame@@MBEPBUAFX_MSGMAP@@XZ @ 2666 NONAME
	 ?GetMessageMap@CMDIChildDock@@MBEPBUAFX_MSGMAP@@XZ @ 2667 NONAME
	 ?GetMessageMap@CMDIClientValidator@@MBEPBUAFX_MSGMAP@@XZ @ 2668 NONAME
	 ?GetMessageMap@CMenuBtn@@MBEPBUAFX_MSGMAP@@XZ @ 2669 NONAME
	 ?GetMessageMap@CMessageBox@@MBEPBUAFX_MSGMAP@@XZ @ 2670 NONAME
	 ?GetMessageMap@CNewBarDialog@@MBEPBUAFX_MSGMAP@@XZ @ 2671 NONAME
	 ?GetMessageMap@CNewFileDialogTab@@MBEPBUAFX_MSGMAP@@XZ @ 2672 NONAME
	 ?GetMessageMap@CNewOtherDocDialogTab@@MBEPBUAFX_MSGMAP@@XZ @ 2673 NONAME
	 ?GetMessageMap@CNewProjectDialogTab@@MBEPBUAFX_MSGMAP@@XZ @ 2674 NONAME
	 ?GetMessageMap@CNewTemplateDialogTab@@MBEPBUAFX_MSGMAP@@XZ @ 2675 NONAME
	 ?GetMessageMap@CNewWorkspaceDialogTab@@MBEPBUAFX_MSGMAP@@XZ @ 2676 NONAME
	 ?GetMessageMap@COldStatusBar@@MBEPBUAFX_MSGMAP@@XZ @ 2677 NONAME
	 ?GetMessageMap@COldToolBar@@MBEPBUAFX_MSGMAP@@XZ @ 2678 NONAME
	 ?GetMessageMap@COleAllPage@@MBEPBUAFX_MSGMAP@@XZ @ 2679 NONAME
	 ?GetMessageMap@COpenDocsDlg@@MBEPBUAFX_MSGMAP@@XZ @ 2680 NONAME
	 ?GetMessageMap@CPaletteWnd@@MBEPBUAFX_MSGMAP@@XZ @ 2681 NONAME
	 ?GetMessageMap@CPartDoc@@MBEPBUAFX_MSGMAP@@XZ @ 2682 NONAME
	 ?GetMessageMap@CPartFrame@@MBEPBUAFX_MSGMAP@@XZ @ 2683 NONAME
	 ?GetMessageMap@CPartView@@MBEPBUAFX_MSGMAP@@XZ @ 2684 NONAME
	 ?GetMessageMap@CProjTypeIconList@@MBEPBUAFX_MSGMAP@@XZ @ 2685 NONAME
	 ?GetMessageMap@CPropButton@@MBEPBUAFX_MSGMAP@@XZ @ 2686 NONAME
	 ?GetMessageMap@CPropEdit@@MBEPBUAFX_MSGMAP@@XZ @ 2687 NONAME
	 ?GetMessageMap@CPropList@@MBEPBUAFX_MSGMAP@@XZ @ 2688 NONAME
	 ?GetMessageMap@CPropListBox@@MBEPBUAFX_MSGMAP@@XZ @ 2689 NONAME
	 ?GetMessageMap@CRedoControl@@MBEPBUAFX_MSGMAP@@XZ @ 2690 NONAME
	 ?GetMessageMap@CSheetWnd@@MBEPBUAFX_MSGMAP@@XZ @ 2691 NONAME
	 ?GetMessageMap@CSizeCombo@@MBEPBUAFX_MSGMAP@@XZ @ 2692 NONAME
	 ?GetMessageMap@CSlobPage@@MBEPBUAFX_MSGMAP@@XZ @ 2693 NONAME
	 ?GetMessageMap@CSlobWnd@@MBEPBUAFX_MSGMAP@@XZ @ 2694 NONAME
	 ?GetMessageMap@CStaticVCenter@@MBEPBUAFX_MSGMAP@@XZ @ 2695 NONAME
	 ?GetMessageMap@CStringListEdit@@MBEPBUAFX_MSGMAP@@XZ @ 2696 NONAME
	 ?GetMessageMap@CStringListGridWnd@@MBEPBUAFX_MSGMAP@@XZ @ 2697 NONAME
	 ?GetMessageMap@CSushiBar@@MBEPBUAFX_MSGMAP@@XZ @ 2698 NONAME
	 ?GetMessageMap@CTabbedDialog@@MBEPBUAFX_MSGMAP@@XZ @ 2699 NONAME
	 ?GetMessageMap@CTap@@MBEPBUAFX_MSGMAP@@XZ @ 2700 NONAME
	 ?GetMessageMap@CTheApp@@MBEPBUAFX_MSGMAP@@XZ @ 2701 NONAME
	 ?GetMessageMap@CTipCtrl@@MBEPBUAFX_MSGMAP@@XZ @ 2702 NONAME
	 ?GetMessageMap@CTipDlg@@MBEPBUAFX_MSGMAP@@XZ @ 2703 NONAME
	 ?GetMessageMap@CToggleBitmapButton@@MBEPBUAFX_MSGMAP@@XZ @ 2704 NONAME
	 ?GetMessageMap@CToolbarCombo@@MBEPBUAFX_MSGMAP@@XZ @ 2705 NONAME
	 ?GetMessageMap@CToolbarDialog@@MBEPBUAFX_MSGMAP@@XZ @ 2706 NONAME
	 ?GetMessageMap@CToolbarEditCombo@@MBEPBUAFX_MSGMAP@@XZ @ 2707 NONAME
	 ?GetMessageMap@CToolCustomizer@@MBEPBUAFX_MSGMAP@@XZ @ 2708 NONAME
	 ?GetMessageMap@CToolsGrid@@MBEPBUAFX_MSGMAP@@XZ @ 2709 NONAME
	 ?GetMessageMap@CTreeCtl@@MBEPBUAFX_MSGMAP@@XZ @ 2710 NONAME
	 ?GetMessageMap@CTreeListBox@@MBEPBUAFX_MSGMAP@@XZ @ 2711 NONAME
	 ?GetMessageMap@CUndoControl@@MBEPBUAFX_MSGMAP@@XZ @ 2712 NONAME
	 ?GetMessageMap@CUndoList@@MBEPBUAFX_MSGMAP@@XZ @ 2713 NONAME
	 ?GetMessageMap@CVshellPackage@@MBEPBUAFX_MSGMAP@@XZ @ 2714 NONAME
	 ?GetMessageMap@CWidgetScrollBar@@MBEPBUAFX_MSGMAP@@XZ @ 2715 NONAME
	 ?GetMessageMap@CWindowList@@MBEPBUAFX_MSGMAP@@XZ @ 2716 NONAME
	 ?GetMessageMap@CWorkspaceDlg@@MBEPBUAFX_MSGMAP@@XZ @ 2717 NONAME
	 ?GetMessageString@CMainFrame@@UBEXIAAVCString@@@Z @ 2718 NONAME
	 ?GetMinMaxInfo@CIPCompDoc@@UAEXPAUtagMINMAXINFO@@@Z @ 2719 NONAME
	 ?GetMoniker@XMyOleClientSite@CIPCompContainerItem@@UAGJKKPAPAUIMoniker@@@Z @ 2720 NONAME
	 ?GetMonitorRect@@YAXPAUHWND__@@PAUtagRECT@@H@Z @ 2721 NONAME
	 ?GetMoveSize@CDockWorker@@QAE?AVCSize@@W4DOCKPOS@@V2@@Z @ 2722 NONAME
	 ?GetName@CApplication@@QAEPAGXZ @ 2723 NONAME
	 ?GetName@CAutoDocumentDefault@@IAEPAGXZ @ 2724 NONAME
	 ?GetName@CBMenuItem@@QAE?AVCString@@XZ @ 2725 NONAME
	 ?GetName@COLEStorage@@QAEPBDXZ @ 2726 NONAME
	 ?GetName@CPartDoc@@IAEPAGXZ @ 2727 NONAME
	 ?GetName@CWinList@@QBEHHAAVCString@@@Z @ 2728 NONAME
	 ?GetNameFromVK@@YAPBDG@Z @ 2729 NONAME
	 ?GetNewEnum@CAutoProjects@@IAEPAUIUnknown@@XZ @ 2730 NONAME
	 ?GetNewEnumData@CPropItem@@QAEXXZ @ 2731 NONAME
	 ?GetNext@CAutoWindowDefault@@IAEPAUIDispatch@@XZ @ 2732 NONAME
	 ?GetNext@CElList@@QAEPAUFMT_ELEMENT@@AAVCFmtElementIterator@@HH@Z @ 2733 NONAME
	 ?GetNext@CEnum@@UAEPAUCEnumerator@@AAPAU__POSITION@@@Z @ 2734 NONAME
	 ?GetNext@CPartFrame@@QAEPAUIDispatch@@XZ @ 2735 NONAME
	 ?GetNextAssoc@?$CMap@IIPAV?$CTypedPtrArray@VCObArray@@PAVCPack@@@@AAPAV1@@@QBEXAAPAU__POSITION@@AAIAAPAV?$CTypedPtrArray@VCObArray@@PAVCPack@@@@@Z @ 2736 NONAME
	 ?GetNextAssoc@?$CMap@IIPAVCBMenuPopup@@AAPAV1@@@QBEXAAPAU__POSITION@@AAIAAPAVCBMenuPopup@@@Z @ 2737 NONAME
	 ?GetNextAssoc@CMapDirToOb@@QBEXAAPAU__POSITION@@AAVCDir@@AAPAVCObject@@@Z @ 2738 NONAME
	 ?GetNextAssoc@CMapPathToOb@@QBEXAAPAU__POSITION@@AAVCPath@@AAPAVCObject@@@Z @ 2739 NONAME
	 ?GetNextControlColumn@CGridControlRow@@UAEHH@Z @ 2740 NONAME
	 ?GetNextFreeMenu@CCmdCache@@QAEHXZ @ 2741 NONAME
	 ?GetNextFullFileName@C3dFileDialog@@QAE?AVCString@@PAU__POSITION@@@Z @ 2742 NONAME
	 ?GetNextKey@CKeymap@@QAEXAAPAU__POSITION@@AAGAAIAAPAV1@@Z @ 2743 NONAME
	 ?GetNextL@CLocalizedEnum@@UAEPAUCLocalizedEnumerator@@AAPAU__POSITION@@@Z @ 2744 NONAME
	 ?GetNextSlobWnd@CSlobWnd@@SAPAV1@AAPAU__POSITION@@@Z @ 2745 NONAME
	 ?GetNode@CTreeCtl@@QAEPAVCNode@@H@Z @ 2746 NONAME
	 ?GetNodeTitle@CTreeCtl@@UAEXPAVCNode@@AAVCString@@@Z @ 2747 NONAME
	 ?GetNotifySinkInfo@COleAllPage@@IAEXXZ @ 2748 NONAME
	 ?GetNullPropertyPage@@YAPAVC3dPropertyPage@@XZ @ 2749 NONAME
	 ?GetOleDocument@CDocObjectContainerItem@@UAEHXZ @ 2750 NONAME
	 ?GetOleMenu@CCmdCache@@QAEPAUHMENU__@@XZ @ 2751 NONAME
	 ?GetOleObject@CIPCompDoc@@QAEPAUIOleObject@@XZ @ 2752 NONAME
	 ?GetOpenDialogInfo@CPackage@@UAEXPAPAUSRankedStringID@@0H@Z @ 2753 NONAME
	 ?GetOpenDialogInfo@CVshellPackage@@UAEXPAPAUSRankedStringID@@0H@Z @ 2754 NONAME
	 ?GetOpenFrame@CTheApp@@QAEPAVCPartFrame@@PBDAAPAVCDocTemplate@@AAPAVCDocument@@@Z @ 2755 NONAME
	 ?GetOpenParentState@COleUndoManager@@UAGJPAK@Z @ 2756 NONAME
	 ?GetOpenTemplate@CTheApp@@QAEPAVCPartTemplate@@PBDAAPAVCDocument@@@Z @ 2757 NONAME
	 ?GetOrient@CASBar@@UBE?AW4ORIENTATION@@XZ @ 2758 NONAME
	 ?GetOrient@CChoiceBar@@UBE?AW4ORIENTATION@@XZ @ 2759 NONAME
	 ?GetOrient@CCustomBar@@UBE?AW4ORIENTATION@@XZ @ 2760 NONAME
	 ?GetOrient@CCustomBarProxy@@UBE?AW4ORIENTATION@@XZ @ 2761 NONAME
	 ?GetOrient@CMenuPopupProxy@@UBE?AW4ORIENTATION@@XZ @ 2762 NONAME
	 ?GetOrient@COldToolBar@@UBE?AW4ORIENTATION@@XZ @ 2763 NONAME
	 ?GetOutputWindow@CIdeInterface@@QAEPAUIOutputWindow@@XZ @ 2764 NONAME
	 ?GetOwner@CWnd@@QBEPAV1@XZ @ 2765 NONAME
	 ?GetPackage@CPartTemplate@@UBEPAVCPackage@@XZ @ 2766 NONAME
	 ?GetPackage@CTheApp@@QAEPAVCPackage@@I@Z @ 2767 NONAME
	 ?GetPackageExtension@CApplication@@QAEPAUIDispatch@@PBD@Z @ 2768 NONAME
	 ?GetPackageExtension@CPackage@@UAEPAUIDispatch@@PBD@Z @ 2769 NONAME
	 ?GetPackageExtension@CTheApp@@QAEPAUIDispatch@@PBD@Z @ 2770 NONAME
	 ?GetPackageExtension@XApplication@CApplication@@EAGJPAGPAPAUIDispatch@@@Z @ 2771 NONAME
	 ?GetPackageProperty@CPackage@@UAEII@Z @ 2772 NONAME
	 ?GetPackagesDefProvidedNodes@CTheApp@@QAEXAAVCPtrList@@H@Z @ 2773 NONAME
	 ?GetPackageWindow@CDockWorker@@IAEPAUHWND__@@XZ @ 2774 NONAME
	 ?GetPacket@CPartTemplate@@UBEPAVCPacket@@XZ @ 2775 NONAME
	 ?GetPacket@CTheApp@@QAEPAVCPacket@@IIH@Z @ 2776 NONAME
	 ?GetPageContainer@XPropertyPageSite@COlePage@@UAGJPAPAUIUnknown@@@Z @ 2777 NONAME
	 ?GetPageName@C3dPropertyPage@@UAEXAAVCString@@@Z @ 2778 NONAME
	 ?GetPageName@COleAllPage@@UAEXAAVCString@@@Z @ 2779 NONAME
	 ?GetPageName@COlePage@@UAEXAAVCString@@@Z @ 2780 NONAME
	 ?GetPageName@CSlobPage@@UAEXAAVCString@@@Z @ 2781 NONAME
	 ?GetPageSize@C3dPropertyPage@@UAE?AVCSize@@XZ @ 2782 NONAME
	 ?GetPageSize@COleAllPage@@UAE?AVCSize@@XZ @ 2783 NONAME
	 ?GetPageSize@COlePage@@UAE?AVCSize@@XZ @ 2784 NONAME
	 ?GetPaletteRect@CPaletteWnd@@SAXAAVCRect@@PAVCWnd@@@Z @ 2785 NONAME
	 ?GetPaneInfo@COldStatusBar@@QBEXHAAI0AAH@Z @ 2786 NONAME
	 ?GetPaneStyle@COldStatusBar@@QBEIH@Z @ 2787 NONAME
	 ?GetPaneText@COldStatusBar@@QBEXHAAVCString@@@Z @ 2788 NONAME
	 ?GetParent@CApplication@@QAEPAUIDispatch@@XZ @ 2789 NONAME
	 ?GetParent@CAutoDocumentDefault@@IAEPAUIDispatch@@XZ @ 2790 NONAME
	 ?GetParent@CAutoDocuments@@IAEPAUIDispatch@@XZ @ 2791 NONAME
	 ?GetParent@CAutoProjects@@IAEPAUIDispatch@@XZ @ 2792 NONAME
	 ?GetParent@CAutoWindowDefault@@IAEPAUIDispatch@@XZ @ 2793 NONAME
	 ?GetParent@CAutoWindows@@IAEPAUIDispatch@@XZ @ 2794 NONAME
	 ?GetParent@CPartDoc@@IAEPAUIDispatch@@XZ @ 2795 NONAME
	 ?GetParentState@COleParentUndoUnit@@UAGJPAK@Z @ 2796 NONAME
	 ?GetPath@CApplication@@QAEPAGXZ @ 2797 NONAME
	 ?GetPath@CAutoDocumentDefault@@IAEPAGXZ @ 2798 NONAME
	 ?GetPath@CPartDoc@@IAEPAGXZ @ 2799 NONAME
	 ?GetPathName@CDirChooser@@QBE?AVCString@@XZ @ 2800 NONAME
	 ?GetPathName@CFileNewTabbedDialog@@QBE?AVCString@@XZ @ 2801 NONAME
	 ?GetPathname@CFileOpenReturn@@QBEHHAAVCString@@@Z @ 2802 NONAME
	 ?GetPictureType@COleAllPage@@IAEHPAUIDispatch@@AAVCString@@@Z @ 2803 NONAME
	 ?GetPkgName@CShellRecorder@@MBEPBDXZ @ 2804 NONAME
	 ?GetPointProp@CMultiSlob@@UAE?AW4GPT@@IAAVCPoint@@@Z @ 2805 NONAME
	 ?GetPointProp@CSlob@@UAE?AW4GPT@@IAAVCPoint@@@Z @ 2806 NONAME
	 ?GetPredefinedStrings@XOleCompUIMgr@CIPCompFrameHook@@UAGJJPAUtagCALPOLESTR@@PAUtagCADWORD@@@Z @ 2807 NONAME
	 ?GetPredefinedValue@XOleCompUIMgr@CIPCompFrameHook@@UAGJJKPAUtagVARIANT@@@Z @ 2808 NONAME
	 ?GetPrevControlColumn@CGridControlRow@@UAEHH@Z @ 2809 NONAME
	 ?GetPrevious@CAutoWindowDefault@@IAEPAUIDispatch@@XZ @ 2810 NONAME
	 ?GetPrevious@CPartFrame@@QAEPAUIDispatch@@XZ @ 2811 NONAME
	 ?GetProfileIntA@CTheApp@@QAEIPBD0H@Z @ 2812 NONAME
	 ?GetProfileStringA@CTheApp@@QAE?AVCString@@PBD00@Z @ 2813 NONAME
	 ?GetProjectFrame@@YAPAVCPartFrame@@XZ @ 2814 NONAME
	 ?GetProjectRCFile@@YAHPAD@Z @ 2815 NONAME
	 ?GetProjects@CApplication@@QAEPAUIDispatch@@XZ @ 2816 NONAME
	 ?GetProjectWorkspace@CIdeInterface@@QAEPAUIProjectWorkspace@@XZ @ 2817 NONAME
	 ?GetProjectWorkspaceInfoText@CPackage@@UAEPBDPBD@Z @ 2818 NONAME
	 ?GetPropBag@CSlob@@UAEPAVCPropBag@@H@Z @ 2819 NONAME
	 ?GetPropBagCount@CSlob@@UBEHXZ @ 2820 NONAME
	 ?GetPropDetails@COleAllPage@@IAEHPAUIDispatch@@PAUITypeInfo@@KJPAVCPropItem@@HPAUtagVARIANT@@@Z @ 2821 NONAME
	 ?GetPropertyBrowser@@YAPAVCSheetWnd@@XZ @ 2822 NONAME
	 ?GetPropertyBrowserControl@@YAPAVCWnd@@I@Z @ 2823 NONAME
	 ?GetPropMap@CAppSlob@@UBEPBUPRD@@XZ @ 2824 NONAME
	 ?GetPropMap@CSlob@@UBEPBUPRD@@XZ @ 2825 NONAME
	 ?GetPropName@COleAllPage@@IAEHPAUITypeInfo@@JAAVCString@@@Z @ 2826 NONAME
	 ?GetPropPage@COlePage@@SAPAVC3dPropertyPage@@ABU_GUID@@@Z @ 2827 NONAME
	 ?GetPropPage@COlePage@@SAPAVC3dPropertyPage@@I@Z @ 2828 NONAME
	 ?GetPropType@COleAllPage@@IAE?AW4DataType@@PAUIDispatch@@PAUITypeInfo@@PAUtagVARDESC@@PAUtagFUNCDESC@@H@Z @ 2829 NONAME
	 ?GetPropValue@COleAllPage@@IAEHPAUIDispatch@@JPAUtagVARIANT@@@Z @ 2830 NONAME
	 ?GetPropValueForEnumInt@COleAllPage@@IAEHPAUITypeInfo@@KJPAVCPropItem@@H@Z @ 2831 NONAME
	 ?GetPropValueForEnumString@COleAllPage@@IAEHPAUIDispatch@@JPAVCPropItem@@PAUtagVARIANT@@@Z @ 2832 NONAME
	 ?GetPropValueForOtherTypes@COleAllPage@@IAEHPAUtagVARIANT@@PAVCPropItem@@@Z @ 2833 NONAME
	 ?GetProxy@CBMenuPopup@@QAEPAVCMenuPopupProxy@@XZ @ 2834 NONAME
	 ?GetPSSHelpFile@@YAHAAVCString@@@Z @ 2835 NONAME
	 ?GetPtr@CWinList@@QBEHHAAPAX@Z @ 2836 NONAME
	 ?GetQuotedBasicString@CQuotedStringArg@@IAEXAAVCString@@PBD@Z @ 2837 NONAME
	 ?GetReadOnly@CAutoDocumentDefault@@IAEHXZ @ 2838 NONAME
	 ?GetRecentFileListSize@CTheApp@@QAEHXZ @ 2839 NONAME
	 ?GetRecentProjectListSize@CTheApp@@QAEHXZ @ 2840 NONAME
	 ?GetRect@CGridCaption@@UAEXAAVCRect@@@Z @ 2841 NONAME
	 ?GetRect@CGridCell@@UAEXAAVCRect@@@Z @ 2842 NONAME
	 ?GetRect@CGridRow@@UAEXAAVCRect@@@Z @ 2843 NONAME
	 ?GetRectProp@CMultiSlob@@UAE?AW4GPT@@IAAVCRect@@@Z @ 2844 NONAME
	 ?GetRectProp@CSlob@@UAE?AW4GPT@@IAAVCRect@@@Z @ 2845 NONAME
	 ?GetRedoString@CUndoSlob@@QAEXAAVCString@@H@Z @ 2846 NONAME
	 ?GetReg@CKeymap@@QAEHPBD@Z @ 2847 NONAME
	 ?GetRegData@@YAPAXPBD0PAX@Z @ 2848 NONAME
	 ?GetRegDataCore@@YAHAAPAXPAUHKEY__@@PBD2PAX@Z @ 2849 NONAME
	 ?GetRegExprSyntax@@YA?AW4reSyntax@@XZ @ 2850 NONAME
	 ?GetRegInt@@YAIPBD0H@Z @ 2851 NONAME
	 ?GetRegIntCore@@YAHAAIPAUHKEY__@@PBD2I@Z @ 2852 NONAME
	 ?GetRegIStream@@YAPAUIStream@@PBD0@Z @ 2853 NONAME
	 ?GetRegistryKeyName@@YAPADXZ @ 2854 NONAME
	 ?GetRegRect@@YAHPBD0AAVCRect@@@Z @ 2855 NONAME
	 ?GetRegString@@YA?AVCString@@PBD00@Z @ 2856 NONAME
	 ?GetRegStringCore@@YAJPADAAK1PAUHKEY__@@PBD3@Z @ 2857 NONAME
	 ?GetRegWorkspaceDir@@YAXAAVCString@@@Z @ 2858 NONAME
	 ?GetRelativeName@@YA?AVCString@@PBD0@Z @ 2859 NONAME
	 ?GetRelativeName@CPath@@QBEHABVCDir@@AAVCString@@HH@Z @ 2860 NONAME
	 ?GetResourceHandle@@YAPAUHINSTANCE__@@XZ @ 2861 NONAME
	 ?GetRevString@CErrorContext@@UAEXAAVCString@@@Z @ 2862 NONAME
	 ?GetRevString@CStorageEC@@UAEXAAVCString@@@Z @ 2863 NONAME
	 ?GetRightBorder@CCustomBar@@IBEHW4ORIENTATION@@@Z @ 2864 NONAME
	 ?GetRightMDIArea@CCustomBar@@IBEHW4ORIENTATION@@@Z @ 2865 NONAME
	 ?GetRootContainer@CSlob@@QAEPAV1@XZ @ 2866 NONAME
	 ?GetRow@CGridCell@@UBEPAVCGridRow@@XZ @ 2867 NONAME
	 ?GetRow@CGridElement@@UBEPAVCGridRow@@XZ @ 2868 NONAME
	 ?GetRow@CStringListGridWnd@@QAEPAVCStringListGridRow@@H@Z @ 2869 NONAME
	 ?GetRow@CStringListGridWnd@@QBEPBVCStringListGridRow@@H@Z @ 2870 NONAME
	 ?GetRowIndex@CStringListGridWnd@@QBEHPBVCGridRow@@@Z @ 2871 NONAME
	 ?GetRowInfo@CDockWnd@@QAEPAU_DWI@@H@Z @ 2872 NONAME
	 ?GetRuntimeClass@C3dDialogBar@@UBEPAUCRuntimeClass@@XZ @ 2873 NONAME
	 ?GetRuntimeClass@C3dPropertyPage@@UBEPAUCRuntimeClass@@XZ @ 2874 NONAME
	 ?GetRuntimeClass@CApplication@@UBEPAUCRuntimeClass@@XZ @ 2875 NONAME
	 ?GetRuntimeClass@CASBar@@UBEPAUCRuntimeClass@@XZ @ 2876 NONAME
	 ?GetRuntimeClass@CAutoCollection@@UBEPAUCRuntimeClass@@XZ @ 2877 NONAME
	 ?GetRuntimeClass@CAutoDocumentDefault@@UBEPAUCRuntimeClass@@XZ @ 2878 NONAME
	 ?GetRuntimeClass@CAutoDocuments@@UBEPAUCRuntimeClass@@XZ @ 2879 NONAME
	 ?GetRuntimeClass@CAutoObj@@UBEPAUCRuntimeClass@@XZ @ 2880 NONAME
	 ?GetRuntimeClass@CAutoProjects@@UBEPAUCRuntimeClass@@XZ @ 2881 NONAME
	 ?GetRuntimeClass@CAutoWindowDefault@@UBEPAUCRuntimeClass@@XZ @ 2882 NONAME
	 ?GetRuntimeClass@CAutoWindowObj@@UBEPAUCRuntimeClass@@XZ @ 2883 NONAME
	 ?GetRuntimeClass@CAutoWindows@@UBEPAUCRuntimeClass@@XZ @ 2884 NONAME
	 ?GetRuntimeClass@CBMenuPopup@@UBEPAUCRuntimeClass@@XZ @ 2885 NONAME
	 ?GetRuntimeClass@CBorderBar@@UBEPAUCRuntimeClass@@XZ @ 2886 NONAME
	 ?GetRuntimeClass@CBuilderWizardManager@@UBEPAUCRuntimeClass@@XZ @ 2887 NONAME
	 ?GetRuntimeClass@CButtonDragListBox@@UBEPAUCRuntimeClass@@XZ @ 2888 NONAME
	 ?GetRuntimeClass@CChoiceBar@@UBEPAUCRuntimeClass@@XZ @ 2889 NONAME
	 ?GetRuntimeClass@CClipboardSlob@@UBEPAUCRuntimeClass@@XZ @ 2890 NONAME
	 ?GetRuntimeClass@CCommandTab@@UBEPAUCRuntimeClass@@XZ @ 2891 NONAME
	 ?GetRuntimeClass@CCustomBar@@UBEPAUCRuntimeClass@@XZ @ 2892 NONAME
	 ?GetRuntimeClass@CCustomDialog@@UBEPAUCRuntimeClass@@XZ @ 2893 NONAME
	 ?GetRuntimeClass@CCustomizeToolsDialog@@UBEPAUCRuntimeClass@@XZ @ 2894 NONAME
	 ?GetRuntimeClass@CDir@@UBEPAUCRuntimeClass@@XZ @ 2895 NONAME
	 ?GetRuntimeClass@CDirList@@UBEPAUCRuntimeClass@@XZ @ 2896 NONAME
	 ?GetRuntimeClass@CDlgTab@@UBEPAUCRuntimeClass@@XZ @ 2897 NONAME
	 ?GetRuntimeClass@CDockablePartView@@UBEPAUCRuntimeClass@@XZ @ 2898 NONAME
	 ?GetRuntimeClass@CDockManager@@UBEPAUCRuntimeClass@@XZ @ 2899 NONAME
	 ?GetRuntimeClass@CDockWnd@@UBEPAUCRuntimeClass@@XZ @ 2900 NONAME
	 ?GetRuntimeClass@CDockWorker@@UBEPAUCRuntimeClass@@XZ @ 2901 NONAME
	 ?GetRuntimeClass@CDocObjectContainerItem@@UBEPAUCRuntimeClass@@XZ @ 2902 NONAME
	 ?GetRuntimeClass@CDocObjectDoc@@UBEPAUCRuntimeClass@@XZ @ 2903 NONAME
	 ?GetRuntimeClass@CDocObjectFrame@@UBEPAUCRuntimeClass@@XZ @ 2904 NONAME
	 ?GetRuntimeClass@CDocObjectTemplate@@UBEPAUCRuntimeClass@@XZ @ 2905 NONAME
	 ?GetRuntimeClass@CDocObjectView@@UBEPAUCRuntimeClass@@XZ @ 2906 NONAME
	 ?GetRuntimeClass@CDropControl@@UBEPAUCRuntimeClass@@XZ @ 2907 NONAME
	 ?GetRuntimeClass@CEnumVariantObjs@@UBEPAUCRuntimeClass@@XZ @ 2908 NONAME
	 ?GetRuntimeClass@CErrorContext@@UBEPAUCRuntimeClass@@XZ @ 2909 NONAME
	 ?GetRuntimeClass@CFileNewTabbedDialog@@UBEPAUCRuntimeClass@@XZ @ 2910 NONAME
	 ?GetRuntimeClass@CFileNewWizardTemplate@@UBEPAUCRuntimeClass@@XZ @ 2911 NONAME
	 ?GetRuntimeClass@CFindCombo@@UBEPAUCRuntimeClass@@XZ @ 2912 NONAME
	 ?GetRuntimeClass@CFloatingFrameBar@@UBEPAUCRuntimeClass@@XZ @ 2913 NONAME
	 ?GetRuntimeClass@CFloatingFrameWnd@@UBEPAUCRuntimeClass@@XZ @ 2914 NONAME
	 ?GetRuntimeClass@CFontColorDlg@@UBEPAUCRuntimeClass@@XZ @ 2915 NONAME
	 ?GetRuntimeClass@CFontNameCombo@@UBEPAUCRuntimeClass@@XZ @ 2916 NONAME
	 ?GetRuntimeClass@CFormatInfo@@UBEPAUCRuntimeClass@@XZ @ 2917 NONAME
	 ?GetRuntimeClass@CGhostListBox@@UBEPAUCRuntimeClass@@XZ @ 2918 NONAME
	 ?GetRuntimeClass@CGoToDialog@@UBEPAUCRuntimeClass@@XZ @ 2919 NONAME
	 ?GetRuntimeClass@CGridControlWnd@@UBEPAUCRuntimeClass@@XZ @ 2920 NONAME
	 ?GetRuntimeClass@CGridWnd@@UBEPAUCRuntimeClass@@XZ @ 2921 NONAME
	 ?GetRuntimeClass@CInitFile@@UBEPAUCRuntimeClass@@XZ @ 2922 NONAME
	 ?GetRuntimeClass@CInternalTrackSelection@@UBEPAUCRuntimeClass@@XZ @ 2923 NONAME
	 ?GetRuntimeClass@CIPCompBuilderWizardManager@@UBEPAUCRuntimeClass@@XZ @ 2924 NONAME
	 ?GetRuntimeClass@CIPCompContainerItem@@UBEPAUCRuntimeClass@@XZ @ 2925 NONAME
	 ?GetRuntimeClass@CIPCompDoc@@UBEPAUCRuntimeClass@@XZ @ 2926 NONAME
	 ?GetRuntimeClass@CIPCompDocTemplate@@UBEPAUCRuntimeClass@@XZ @ 2927 NONAME
	 ?GetRuntimeClass@CIPCompSlob@@UBEPAUCRuntimeClass@@XZ @ 2928 NONAME
	 ?GetRuntimeClass@CIPCompView@@UBEPAUCRuntimeClass@@XZ @ 2929 NONAME
	 ?GetRuntimeClass@CMainFrame@@UBEPAUCRuntimeClass@@XZ @ 2930 NONAME
	 ?GetRuntimeClass@CMapDirToOb@@UBEPAUCRuntimeClass@@XZ @ 2931 NONAME
	 ?GetRuntimeClass@CMapPathToOb@@UBEPAUCRuntimeClass@@XZ @ 2932 NONAME
	 ?GetRuntimeClass@CMDIChildDock@@UBEPAUCRuntimeClass@@XZ @ 2933 NONAME
	 ?GetRuntimeClass@CMultiSlob@@UBEPAUCRuntimeClass@@XZ @ 2934 NONAME
	 ?GetRuntimeClass@CNewFileDialogTab@@UBEPAUCRuntimeClass@@XZ @ 2935 NONAME
	 ?GetRuntimeClass@CNewOtherDocDialogTab@@UBEPAUCRuntimeClass@@XZ @ 2936 NONAME
	 ?GetRuntimeClass@CNewProjectDialogTab@@UBEPAUCRuntimeClass@@XZ @ 2937 NONAME
	 ?GetRuntimeClass@CNewTemplateDialogTab@@UBEPAUCRuntimeClass@@XZ @ 2938 NONAME
	 ?GetRuntimeClass@CNewWorkspaceDialogTab@@UBEPAUCRuntimeClass@@XZ @ 2939 NONAME
	 ?GetRuntimeClass@COldStatusBar@@UBEPAUCRuntimeClass@@XZ @ 2940 NONAME
	 ?GetRuntimeClass@COldToolBar@@UBEPAUCRuntimeClass@@XZ @ 2941 NONAME
	 ?GetRuntimeClass@COleAllPage@@UBEPAUCRuntimeClass@@XZ @ 2942 NONAME
	 ?GetRuntimeClass@COlePage@@UBEPAUCRuntimeClass@@XZ @ 2943 NONAME
	 ?GetRuntimeClass@COleTrackSelection@@UBEPAUCRuntimeClass@@XZ @ 2944 NONAME
	 ?GetRuntimeClass@CPack@@UBEPAUCRuntimeClass@@XZ @ 2945 NONAME
	 ?GetRuntimeClass@CPackage@@UBEPAUCRuntimeClass@@XZ @ 2946 NONAME
	 ?GetRuntimeClass@CPaletteWnd@@UBEPAUCRuntimeClass@@XZ @ 2947 NONAME
	 ?GetRuntimeClass@CPartDoc@@UBEPAUCRuntimeClass@@XZ @ 2948 NONAME
	 ?GetRuntimeClass@CPartFrame@@UBEPAUCRuntimeClass@@XZ @ 2949 NONAME
	 ?GetRuntimeClass@CPartTemplate@@UBEPAUCRuntimeClass@@XZ @ 2950 NONAME
	 ?GetRuntimeClass@CPartView@@UBEPAUCRuntimeClass@@XZ @ 2951 NONAME
	 ?GetRuntimeClass@CPath@@UBEPAUCRuntimeClass@@XZ @ 2952 NONAME
	 ?GetRuntimeClass@CPathList@@UBEPAUCRuntimeClass@@XZ @ 2953 NONAME
	 ?GetRuntimeClass@CProjSlob@@UBEPAUCRuntimeClass@@XZ @ 2954 NONAME
	 ?GetRuntimeClass@CSheetSlob@@UBEPAUCRuntimeClass@@XZ @ 2955 NONAME
	 ?GetRuntimeClass@CSlob@@UBEPAUCRuntimeClass@@XZ @ 2956 NONAME
	 ?GetRuntimeClass@CSlobPage@@UBEPAUCRuntimeClass@@XZ @ 2957 NONAME
	 ?GetRuntimeClass@CSlobWnd@@UBEPAUCRuntimeClass@@XZ @ 2958 NONAME
	 ?GetRuntimeClass@CStorageEC@@UBEPAUCRuntimeClass@@XZ @ 2959 NONAME
	 ?GetRuntimeClass@CSushiBar@@UBEPAUCRuntimeClass@@XZ @ 2960 NONAME
	 ?GetRuntimeClass@CTabbedDialog@@UBEPAUCRuntimeClass@@XZ @ 2961 NONAME
	 ?GetRuntimeClass@CToolbarDialog@@UBEPAUCRuntimeClass@@XZ @ 2962 NONAME
	 ?GetRuntimeClass@CToolbarEditCombo@@UBEPAUCRuntimeClass@@XZ @ 2963 NONAME
	 ?GetRuntimeClass@CToolbarEditComboEdit@@UBEPAUCRuntimeClass@@XZ @ 2964 NONAME
	 ?GetRuntimeClass@CTreeCtl@@UBEPAUCRuntimeClass@@XZ @ 2965 NONAME
	 ?GetRuntimeClass@CTreeListBox@@UBEPAUCRuntimeClass@@XZ @ 2966 NONAME
	 ?GetRuntimeClass@CUndoSlob@@UBEPAUCRuntimeClass@@XZ @ 2967 NONAME
	 ?GetSaved@CAutoDocumentDefault@@IAEHXZ @ 2968 NONAME
	 ?GetSaved@CPartDoc@@IAEHXZ @ 2969 NONAME
	 ?GetSel@CUndoList@@QAEHXZ @ 2970 NONAME
	 ?GetSelCount@CStringListGridWnd@@QBEHXZ @ 2971 NONAME
	 ?GetSelectData@CGoToDialog@@AAEXAAVCString@@PAKPAH2H@Z @ 2972 NONAME
	 ?GetSelection@CIPCompView@@UAEPAVCSlob@@XZ @ 2973 NONAME
	 ?GetSelection@CPartView@@UAEPAVCSlob@@XZ @ 2974 NONAME
	 ?GetSelectionInterface@CPartView@@UAEHPAU_GUID@@PAPAUIUnknown@@@Z @ 2975 NONAME
	 ?GetSelectionObject@CPartView@@UAEPAUIDispatch@@PAU2@@Z @ 2976 NONAME
	 ?GetSelItems@CStringListGridWnd@@QBEHHPAH@Z @ 2977 NONAME
	 ?GetService@CDocObjectContainerItem@@UAEJABU_GUID@@0PAPAX@Z @ 2978 NONAME
	 ?GetService@CDocObjectDoc@@UAEJABU_GUID@@0PAPAX@Z @ 2979 NONAME
	 ?GetService@CIPCompContainerItem@@UAEJABU_GUID@@0PAPAX@Z @ 2980 NONAME
	 ?GetService@CIPCompDoc@@UAEJABU_GUID@@0PAPAX@Z @ 2981 NONAME
	 ?GetService@CPackage@@UAEJABU_GUID@@0PAPAX@Z @ 2982 NONAME
	 ?GetService@CProjSlob@@UAEJABU_GUID@@0PAPAX@Z @ 2983 NONAME
	 ?GetService@CTheApp@@QAEJABU_GUID@@0PAPAX@Z @ 2984 NONAME
	 ?GetShortCount@CBRecentFileList@@UBEHXZ @ 2985 NONAME
	 ?GetShowAllPage@COlePage@@SAHXZ @ 2986 NONAME
	 ?GetSize@CASBar@@UAE?AVCSize@@IV2@@Z @ 2987 NONAME
	 ?GetSize@CBRecentFileList@@UBEHXZ @ 2988 NONAME
	 ?GetSize@CCustomBar@@UAE?AVCSize@@IV2@@Z @ 2989 NONAME
	 ?GetSize@CSizeCombo@@QAEKH@Z @ 2990 NONAME
	 ?GetSlob@CIPCompDoc@@UAEPAVCSlob@@XZ @ 2991 NONAME
	 ?GetSlob@CPartDoc@@UAEPAVCSlob@@XZ @ 2992 NONAME
	 ?GetSlobProp@CMultiSlob@@UAE?AW4GPT@@IAAPAVCSlob@@@Z @ 2993 NONAME
	 ?GetSlobProp@CSlob@@UAE?AW4GPT@@IAAPAV1@@Z @ 2994 NONAME
	 ?GetSlobWnd@CMultiSlob@@UBEPAVCSlobWnd@@XZ @ 2995 NONAME
	 ?GetSlobWnd@CSlob@@UBEPAVCSlobWnd@@XZ @ 2996 NONAME
	 ?GetSortType@CDefProvidedNode@@UAE?AW4SORT_TYPE@1@XZ @ 2997 NONAME
	 ?GetSortType@CProjSlob@@UAE?AW4SORT_TYPE@@XZ @ 2998 NONAME
	 ?GetSourceQuery@CIdeInterface@@QAEPAUISourceQuery@@XZ @ 2999 NONAME
	 ?GetSplitterRect@CDockWnd@@IAEXHAAVCRect@@H@Z @ 3000 NONAME
	 ?GetSplitterRect@CDockWnd@@IAEXHHAAVCRect@@H@Z @ 3001 NONAME
	 ?GetStatusBarHeight@@YAHXZ @ 3002 NONAME
	 ?GetStatusString@CRedoControl@@UAEXHAAVCString@@@Z @ 3003 NONAME
	 ?GetStatusString@CUndoControl@@UAEXHAAVCString@@@Z @ 3004 NONAME
	 ?GetStdFont@@YAPAVCFont@@H@Z @ 3005 NONAME
	 ?GetStdFontInfo@@YAXHAAVCString@@AAH@Z @ 3006 NONAME
	 ?GetStdLogfont@@YAPBUtagLOGFONTA@@HPAVCDC@@@Z @ 3007 NONAME
	 ?GetStorage@CIPCompDoc@@QAEPAUIStorage@@XZ @ 3008 NONAME
	 ?GetString@CErrorContext@@UAEXAAVCString@@@Z @ 3009 NONAME
	 ?GetString@CStorageEC@@UAEXAAVCString@@@Z @ 3010 NONAME
	 ?GetStrProp@CMultiSlob@@UAE?AW4GPT@@IAAVCString@@@Z @ 3011 NONAME
	 ?GetStrProp@CSlob@@UAE?AW4GPT@@IAAVCString@@@Z @ 3012 NONAME
	 ?GetSubMenu@CBMenuPopup@@QBEPAV1@H@Z @ 3013 NONAME
	 ?GetSuperWndProcAddr@CDockComboEdit@@MAEPAP6GJPAUHWND__@@IIJ@ZXZ @ 3014 NONAME
	 ?GetSuperWndProcAddr@CMDIClientValidator@@MAEPAP6GJPAUHWND__@@IIJ@ZXZ @ 3015 NONAME
	 ?GetSuperWndProcAddr@CToolbarEditComboEdit@@MAEPAP6GJPAUHWND__@@IIJ@ZXZ @ 3016 NONAME
	 ?GetSupportingTarget@CIPCompDoc@@IAEPAUIOleCommandTarget@@PAU_GUID@@KK@Z @ 3017 NONAME
	 ?GetSupportingTarget@CIPCompFrameHook@@QAEPAUIOleCommandTarget@@PAU_GUID@@KK@Z @ 3018 NONAME
	 ?GetSysBrush@@YAPAVCBrush@@I@Z @ 3019 NONAME
	 ?GetSysPen@@YAPAVCPen@@I@Z @ 3020 NONAME
	 ?GetTabData@CWidgetScrollBar@@QAEKH@Z @ 3021 NONAME
	 ?GetTabRect@CWidgetScrollBar@@QAEXHAAVCRect@@@Z @ 3022 NONAME
	 ?GetTabSize@CTabbedDialog@@MAEXAAVCRect@@@Z @ 3023 NONAME
	 ?GetTabType@CDocObjectTemplate@@UAE?AW4FileNewTabType@CPartTemplate@@XZ @ 3024 NONAME
	 ?GetTabType@CFileNewWizardTemplate@@UAE?AW4FileNewTabType@CPartTemplate@@XZ @ 3025 NONAME
	 ?GetTabType@CPartTemplate@@UAE?AW4FileNewTabType@1@XZ @ 3026 NONAME
	 ?GetTabWnd@@YAPAVCWnd@@PBV1@I@Z @ 3027 NONAME
	 ?GetTemplate@CTheApp@@QAEPAVCPartTemplate@@ABU_GUID@@@Z @ 3028 NONAME
	 ?GetTemplate@CTheApp@@QAEPAVCPartTemplate@@PBD@Z @ 3029 NONAME
	 ?GetTemplateFromEditor@CPackage@@UAEPAVCDocTemplate@@IPBD@Z @ 3030 NONAME
	 ?GetTemplateFromEditor@CTheApp@@QAEPAVCDocTemplate@@IPBD@Z @ 3031 NONAME
	 ?GetText@CProjTypeList@@QAEXHAAVCString@@@Z @ 3032 NONAME
	 ?GetText@CShellAction@@QAEXAAVCString@@@Z @ 3033 NONAME
	 ?GetText@CShellConstArg@@UAEXAAVCString@@@Z @ 3034 NONAME
	 ?GetText@CStringListGridWnd@@QBEHHAAVCString@@@Z @ 3035 NONAME
	 ?GetText@CSushiBar@@QAEXIAAVCString@@@Z @ 3036 NONAME
	 ?GetTextEditor@CApplication@@QAEPAUIDispatch@@XZ @ 3037 NONAME
	 ?GetTextExtentNoAmpersands@GLOBAL_DATA@@QBE?AVCSize@@PAVCDC@@ABVCString@@@Z @ 3038 NONAME
	 ?GetTextFont@CCustomBar@@IAEPAVCFont@@W4ORIENTATION@@@Z @ 3039 NONAME
	 ?GetTool@CToolList@@QAEPAVCTool@@H@Z @ 3040 NONAME
	 ?GetToolbar@CCustomDialog@@QAEPAVCASBar@@H@Z @ 3041 NONAME
	 ?GetToolbarData@CPackage@@UAEPAXI@Z @ 3042 NONAME
	 ?GetToolbarData@CVshellPackage@@UAEPAXI@Z @ 3043 NONAME
	 ?GetToolInfo@CCustomizeToolsDialog@@QAEHXZ @ 3044 NONAME
	 ?GetTop@CApplication@@QAEJXZ @ 3045 NONAME
	 ?GetTop@CAutoWindowDefault@@IAEJXZ @ 3046 NONAME
	 ?GetTop@CPartFrame@@QAEJXZ @ 3047 NONAME
	 ?GetTopBorder@CCustomBar@@IBEHW4ORIENTATION@@@Z @ 3048 NONAME
	 ?GetTopMDIArea@CCustomBar@@IBEHW4ORIENTATION@@@Z @ 3049 NONAME
	 ?GetTrackRect@CDockWorker@@QAEHAAVCRect@@ABV2@VCPoint@@VCSize@@W4DOCKPOS@@4H11HPAUSHELL_DRAGINFO@@@Z @ 3050 NONAME
	 ?GetTrackSelection@CIPCompDoc@@QAEPAUIUnknown@@XZ @ 3051 NONAME
	 ?GetTrackSelection@CIPCompSlob@@QAEPAUIUnknown@@XZ @ 3052 NONAME
	 ?GetTrackSize@CDockWorker@@QAE?AVCSize@@IV2@@Z @ 3053 NONAME
	 ?GetType@CAutoDocumentDefault@@IAEPAGXZ @ 3054 NONAME
	 ?GetType@CAutoWindowDefault@@IAEPAGXZ @ 3055 NONAME
	 ?GetTypeAt@CTypedRecentFileList@@QAEPAVCDocTemplate@@H@Z @ 3056 NONAME
	 ?GetTypeInfo@CMyOleDispatchImpl@@UAGJIKPAPAUITypeInfo@@@Z @ 3057 NONAME
	 ?GetTypeInfo@XAmbientDispatch@CIPCompContainerItem@@UAGJIKPAPAUITypeInfo@@@Z @ 3058 NONAME
	 ?GetTypeInfo@XApplication@CApplication@@EAGJIKPAPAUITypeInfo@@@Z @ 3059 NONAME
	 ?GetTypeInfo@XDocuments@CAutoDocuments@@EAGJIKPAPAUITypeInfo@@@Z @ 3060 NONAME
	 ?GetTypeInfo@XDualObjs@CAutoCollection@@EAGJIKPAPAUITypeInfo@@@Z @ 3061 NONAME
	 ?GetTypeInfo@XGenericDocument@CAutoDocumentDefault@@EAGJIKPAPAUITypeInfo@@@Z @ 3062 NONAME
	 ?GetTypeInfo@XGenericWindow@CAutoWindowDefault@@EAGJIKPAPAUITypeInfo@@@Z @ 3063 NONAME
	 ?GetTypeInfo@XProjects@CAutoProjects@@EAGJIKPAPAUITypeInfo@@@Z @ 3064 NONAME
	 ?GetTypeInfo@XWindows@CAutoWindows@@EAGJIKPAPAUITypeInfo@@@Z @ 3065 NONAME
	 ?GetTypeInfoCount@CMyOleDispatchImpl@@UAGJPAI@Z @ 3066 NONAME
	 ?GetTypeInfoCount@XAmbientDispatch@CIPCompContainerItem@@UAGJPAI@Z @ 3067 NONAME
	 ?GetTypeInfoCount@XApplication@CApplication@@EAGJPAI@Z @ 3068 NONAME
	 ?GetTypeInfoCount@XDocuments@CAutoDocuments@@EAGJPAI@Z @ 3069 NONAME
	 ?GetTypeInfoCount@XDualObjs@CAutoCollection@@EAGJPAI@Z @ 3070 NONAME
	 ?GetTypeInfoCount@XGenericDocument@CAutoDocumentDefault@@EAGJPAI@Z @ 3071 NONAME
	 ?GetTypeInfoCount@XGenericWindow@CAutoWindowDefault@@EAGJPAI@Z @ 3072 NONAME
	 ?GetTypeInfoCount@XProjects@CAutoProjects@@EAGJPAI@Z @ 3073 NONAME
	 ?GetTypeInfoCount@XWindows@CAutoWindows@@EAGJPAI@Z @ 3074 NONAME
	 ?GetUndoActionManager@CIPCompDoc@@QAEPAUIUnknown@@XZ @ 3075 NONAME
	 ?GetUndoRedoString@CIPCompDoc@@QAEJIJIH@Z @ 3076 NONAME
	 ?GetUndoString@CUndoSlob@@QAEXAAVCString@@H@Z @ 3077 NONAME
	 ?GetUnitType@COleParentUndoUnit@@UAGJPAU_GUID@@PAJ@Z @ 3078 NONAME
	 ?GetUnitType@COleUndoUnit@@UAGJPAU_GUID@@PAJ@Z @ 3079 NONAME
	 ?GetUntitledDir@CAutosave@@AAEXXZ @ 3080 NONAME
	 ?GetValidFilters@CPartDoc@@UAEHPAPAIPAI@Z @ 3081 NONAME
	 ?GetValue@CRegLite@@QAEHPBDPAVCString@@@Z @ 3082 NONAME
	 ?GetVersion@CApplication@@QAEPAGXZ @ 3083 NONAME
	 ?GetVersionOfFile@@YAHPADAAVCString@@1@Z @ 3084 NONAME
	 ?GetView@CDockWorker@@QBEPAVCPartView@@XZ @ 3085 NONAME
	 ?GetVisible@CApplication@@QAEHXZ @ 3086 NONAME
	 ?GetVSize@CCustomBar@@UAE?AVCSize@@XZ @ 3087 NONAME
	 ?GetVWidth@CCustomBar@@UBEHXZ @ 3088 NONAME
	 ?GetWarnings@CApplication@@QAEJXZ @ 3089 NONAME
	 ?GetWidth@CApplication@@QAEJXZ @ 3090 NONAME
	 ?GetWidth@CAutoWindowDefault@@IAEJXZ @ 3091 NONAME
	 ?GetWidth@CBMenuPopup@@QAEHXZ @ 3092 NONAME
	 ?GetWidth@CPartFrame@@QAEJXZ @ 3093 NONAME
	 ?GetWidths@CBMenuItem@@QAEXPAVCDC@@PAPAH@Z @ 3094 NONAME
	 ?GetWinCur@CFCDialogState@@QBEPAUFMT_WINDOW@@HH@Z @ 3095 NONAME
	 ?GetWindow@CCustomBarProxy@@UAEPAVCWnd@@XZ @ 3096 NONAME
	 ?GetWindow@CFormatInfo@@QBEPAUFMT_WINDOW@@PBD@Z @ 3097 NONAME
	 ?GetWindow@CMenuPopupProxy@@UAEPAVCWnd@@XZ @ 3098 NONAME
	 ?GetWindow@XMyOleIPSite@CIPCompContainerItem@@UAGJPAPAUHWND__@@@Z @ 3099 NONAME
	 ?GetWindow@XOleInPlaceSite@CDocObjectContainerItem@@UAGJPAPAUHWND__@@@Z @ 3100 NONAME
	 ?GetWindowContext@XMyOleIPSite@CIPCompContainerItem@@UAGJPAPAUIOleInPlaceFrame@@PAPAUIOleInPlaceUIWindow@@PAUtagRECT@@2PAUtagOIFI@@@Z @ 3101 NONAME
	 ?GetWindowContext@XOleInPlaceSite@CDocObjectContainerItem@@UAGJPAPAUIOleInPlaceFrame@@PAPAUIOleInPlaceUIWindow@@PAUtagRECT@@2PAUtagOIFI@@@Z @ 3102 NONAME
	 ?GetWindowHeight@CBMenuPopup@@QAEHXZ @ 3103 NONAME
	 ?GetWindowOffset@CDockWnd@@IAEHH@Z @ 3104 NONAME
	 ?GetWindows@CApplication@@QAEPAUIDispatch@@XZ @ 3105 NONAME
	 ?GetWindows@CAutoDocumentDefault@@IAEPAUIDispatch@@XZ @ 3106 NONAME
	 ?GetWindows@CPartDoc@@IAEPAUIDispatch@@XZ @ 3107 NONAME
	 ?GetWindowState@CApplication@@QAE?AW4DsWindowState@@XZ @ 3108 NONAME
	 ?GetWindowState@CAutoWindowDefault@@IAE?AW4DsWindowState@@XZ @ 3109 NONAME
	 ?GetWindowState@CPartFrame@@QAE?AW4DsWindowState@@XZ @ 3110 NONAME
	 ?GetWizBarIFace@CIdeInterface@@QAEPAUIWizardBar@@XZ @ 3111 NONAME
	 ?GetWorker@CMDIChildDock@@QBEPAVCDockWorker@@XZ @ 3112 NONAME
	 ?GetWorker@CPaletteWnd@@QBEPAVCDockWorker@@XZ @ 3113 NONAME
	 ?GetWorker@CToolbarDialog@@QAEPAVCDockWorker@@H@Z @ 3114 NONAME
	 ?GetWorker@CWorkspaceDlg@@QAEPAVCDockWorker@@H@Z @ 3115 NONAME
	 ?GetWorkspaceMoniker@CPartFrame@@UAE?AVCString@@H@Z @ 3116 NONAME
	 ?GotoCtlSel@CGoToDialog@@QAEXXZ @ 3117 NONAME
	 ?GrayStringA@CDC@@UAEHPAVCBrush@@P6GHPAUHDC__@@JH@ZJHHHHH@Z @ 3118 NONAME
	 ?GroupFromCommandName@CAppToolGroups@@QAEPAVCToolGroup@@PBD@Z @ 3119 NONAME
	 ?grow@?$CQueue@VFCItem@@AAV1@@@IAEHXZ @ 3120 NONAME
	 ?GrowStack@CRegExStack@@QAEXXZ @ 3121 NONAME
	 ?HandleAcceleratorKey@CTabbedDialog@@QAEHD@Z @ 3122 NONAME
	 ?HandleError@CShellAutomationState@@QAEJXZ @ 3123 NONAME
	 ?HandleTab@CTabbedDialog@@QAEXHH@Z @ 3124 NONAME
	 ?HandleTabRowKey@CTabbedDialog@@QAEHD@Z @ 3125 NONAME
	 ?HandleToolTipText@CTheApp@@SAHIPAUtagNMHDR@@PAJPBD@Z @ 3126 NONAME
	 ?HandleWorkerCmd@CDockManager@@QAEXIHPAVCCmdUI@@@Z @ 3127 NONAME
	 ?HasButtonExtra@CMenuPopupProxy@@UBEHXZ @ 3128 NONAME
	 ?HasChildren@CTreeCtl@@UAEHH@Z @ 3129 NONAME
	 ?HasExInfo@CCustomBarProxy@@UBEHH@Z @ 3130 NONAME
	 ?HasExInfo@CMenuPopupProxy@@UBEHH@Z @ 3131 NONAME
	 ?HasGlyphs@CCustomBar@@IBEHXZ @ 3132 NONAME
	 ?HashKey@CMapDirToOb@@QBEIAAVCDir@@@Z @ 3133 NONAME
	 ?HashKey@CMapPathToOb@@QBEIAAVCPath@@@Z @ 3134 NONAME
	 ?HasLargeButtons@CCustomBarProxy@@UBEHXZ @ 3135 NONAME
	 ?HasLargeButtons@CMenuPopupProxy@@UBEHXZ @ 3136 NONAME
	 ?HasOpenDocument@CTheApp@@QAEHI@Z @ 3137 NONAME
	 ?HasOwnPane@CDefProvidedNode@@UAEHXZ @ 3138 NONAME
	 ?HelpContents@CTheApp@@QAEXXZ @ 3139 NONAME
	 ?HelpContentsExt@@YAHXZ @ 3140 NONAME
	 ?HelpDebug@@YAHPBD@Z @ 3141 NONAME
	 ?HelpDebug@@YAHPBD0@Z @ 3142 NONAME
	 ?HelpDebug@@YAHXZ @ 3143 NONAME
	 ?HelpFileFromID@@YAPBDKI@Z @ 3144 NONAME
	 ?HelpFind@CTheApp@@QAEXPBDW4HELP_FIND_PAGE@@@Z @ 3145 NONAME
	 ?HelpIndexExt@@YAHPBD@Z @ 3146 NONAME
	 ?HelpOnApplication@CTheApp@@QAEXKIPBD@Z @ 3147 NONAME
	 ?HelpOnKeyword@CTheApp@@QAEXPBDHW4REF_DISPLAY_TYPE@@@Z @ 3148 NONAME
	 ?HelpOnKeywordExt@@YAHPBD@Z @ 3149 NONAME
	 ?HideInvalidBarDestination@CCustomBar@@QAEXI@Z @ 3150 NONAME
	 ?HideInvalidDestination@CCustomBar@@SAXI@Z @ 3151 NONAME
	 ?HideInvalidMenuDestination@CBMenuPopup@@QAEXI@Z @ 3152 NONAME
	 ?HideSubPopup@CBMenuPopup@@QAEXXZ @ 3153 NONAME
	 ?HitTest@CBMenuItem@@QAEHVCPoint@@H@Z @ 3154 NONAME
	 ?HitTest@CBMenuPopup@@QAEHVCPoint@@@Z @ 3155 NONAME
	 ?HitTest@CCustomBar@@MBEHVCPoint@@H@Z @ 3156 NONAME
	 ?HitTest@CCustomBarProxy@@UBEHVCPoint@@@Z @ 3157 NONAME
	 ?HitTest@CDockWnd@@IAE?AVCPoint@@V2@@Z @ 3158 NONAME
	 ?HitTest@CMenuPopupProxy@@UBEHVCPoint@@@Z @ 3159 NONAME
	 ?HitTest@COldToolBar@@MBEHVCPoint@@H@Z @ 3160 NONAME
	 ?HitTest@CTreeCtl@@QAE?AW4HIT_ZONE@1@HH@Z @ 3161 NONAME
	 ?HitTest@CWidgetScrollBar@@QAE?AW4HIT_ZONE@1@VCPoint@@@Z @ 3162 NONAME
	 ?HitTestMDI@CCustomBar@@IAE?AW4MDIBUTTON@1@VCPoint@@@Z @ 3163 NONAME
	 ?HoldUpdates@CTreeCtl@@QAEXXZ @ 3164 NONAME
	 ?HwndGetWindow@XMsoComponent@CIPCompMainFrame@@UAGPAUHWND__@@KK@Z @ 3165 NONAME
	 ?IdCtlSelection@CGoToDialog@@QAEHPAW4CONTROL_STYLE@1@@Z @ 3166 NONAME
	 ?IdleAndPump@CTheApp@@QAEHPAX@Z @ 3167 NONAME
	 ?IdleUpdate@CDockManager@@QAEXXZ @ 3168 NONAME
	 ?IdleUpdate@CDragNDrop@@UAEXXZ @ 3169 NONAME
	 ?IdleUpdate@CSheetWnd@@QAEXXZ @ 3170 NONAME
	 ?IdleUpdateAvailableWnds@CDockManager@@QAEXXZ @ 3171 NONAME
	 ?IdsFromFerr@CPackage@@UAEHH@Z @ 3172 NONAME
	 ?IdsFromFerr@CTheApp@@QAEHH@Z @ 3173 NONAME
	 ?imeChangeFont@@YAXPAUHWND__@@PAUHFONT__@@@Z @ 3174 NONAME
	 ?imeEnableIME@@YAHPAUHWND__@@H@Z @ 3175 NONAME
	 ?imeFlush@@YAXPAUHWND__@@@Z @ 3176 NONAME
	 ?imeInit@@YAXXZ @ 3177 NONAME
	 ?imeIsActive@@YAHXZ @ 3178 NONAME
	 ?imeIsEnabled@@YAHXZ @ 3179 NONAME
	 ?imeIsOpen@@YAHXZ @ 3180 NONAME
	 ?imeMoveConvertWin@@YAXPAUHWND__@@HH@Z @ 3181 NONAME
	 ?InCaptionButtonRect@CBorderBar@@IBEHVCPoint@@@Z @ 3182 NONAME
	 ?IncrementPage@CSheetWnd@@QAEXH@Z @ 3183 NONAME
	 ?IndexError@@YAJPAUTERROR@@I@Z @ 3184 NONAME
	 ?IndexFromPoint@CCustomBar@@QAEHABVCPoint@@PAVCRect@@@Z @ 3185 NONAME
	 ?IndexFromPoint@CCustomBarProxy@@UBEHABVCPoint@@PAVCRect@@@Z @ 3186 NONAME
	 ?IndexFromPoint@CMenuPopupProxy@@UBEHABVCPoint@@PAVCRect@@@Z @ 3187 NONAME
	 ?InEmergencyState@@YAHXZ @ 3188 NONAME
	 ?InformationBox@@YAXIZZ @ 3189 NONAME
	 ?InformDependants@CSlob@@UAEXIK@Z @ 3190 NONAME
	 ?InhibitExtraPages@CSheetWnd@@QAEHH@Z @ 3191 NONAME
	 ?InhibitExtraPropertyPages@@YAHH@Z @ 3192 NONAME
	 ?init@?$CQueue@VFCItem@@AAV1@@@IAEXI@Z @ 3193 NONAME
	 ?Init@CTipFile@@QAE?AW4TipStatus@@PBD@Z @ 3194 NONAME
	 ?Init@CTipFileManager@@QAE?AW4TipStatus@@XZ @ 3195 NONAME
	 ?Init@CTipFileQueue@@QAE?AW4TipStatus@@AAVCPtrList@@@Z @ 3196 NONAME
	 ?InitAfterRegistration@CMainFrame@@QAEHXZ @ 3197 NONAME
	 ?InitData@CRegLite@@AAEHXZ @ 3198 NONAME
	 ?InitDialog@CFCDialogState@@QAEXXZ @ 3199 NONAME
	 ?InitGroupNames@CHelpKeyWnd@@QAEXXZ @ 3200 NONAME
	 ?InitHashTable@?$CMap@IIPAV?$CTypedPtrArray@VCObArray@@PAVCPack@@@@AAPAV1@@@QAEXIH@Z @ 3201 NONAME
	 ?InitHashTable@?$CMap@IIPAVCBMenuPopup@@AAPAV1@@@QAEXIH@Z @ 3202 NONAME
	 ?InitHashTable@CMapDirToOb@@QAEXI@Z @ 3203 NONAME
	 ?InitHashTable@CMapPathToOb@@QAEXI@Z @ 3204 NONAME
	 ?Initialize@CBMenuPopup@@QAEXXZ @ 3205 NONAME
	 ?Initialize@CIdeInterface@@QAEHXZ @ 3206 NONAME
	 ?InitializeHelpMenu@CMainFrame@@QAEXPAVCVshellPackage@@@Z @ 3207 NONAME
	 ?InitializeInternal@CConsoleSpawner@@AAEHH@Z @ 3208 NONAME
	 ?InitializePage@C3dPropertyPage@@UAEXXZ @ 3209 NONAME
	 ?InitializePage@COleAllPage@@UAEXXZ @ 3210 NONAME
	 ?InitializePage@COlePage@@UAEXXZ @ 3211 NONAME
	 ?InitializePage@CSlobPage@@UAEXXZ @ 3212 NONAME
	 ?InitializeSpawn@CConsoleSpawner@@QAEHPADIHHPAVCErrorContext@@@Z @ 3213 NONAME
	 ?InitializeToolsMenu@CMainFrame@@QAEXPAVCVshellPackage@@@Z @ 3214 NONAME
	 ?InitialUpdate@CSheetWnd@@QAEXVCPoint@@@Z @ 3215 NONAME
	 ?InitialUpdateFrame@CDocObjectTemplate@@UAEXPAVCFrameWnd@@PAVCDocument@@H@Z @ 3216 NONAME
	 ?InitialUpdateFrame@CIPCompDocTemplate@@UAEXPAVCFrameWnd@@PAVCDocument@@H@Z @ 3217 NONAME
	 ?InitialUpdateFrame@CPartTemplate@@UAEXPAVCFrameWnd@@PAVCDocument@@H@Z @ 3218 NONAME
	 ?InitInstance@CTheApp@@UAEHXZ @ 3219 NONAME
	 ?InitKeymap@CMainFrame@@QAEXXZ @ 3220 NONAME
	 ?InitMenuPopup@CBMenuPopup@@QAEXXZ @ 3221 NONAME
	 ?InitMetrics@@YAXXZ @ 3222 NONAME
	 ?InitMsgBoxes@@YAXXZ @ 3223 NONAME
	 ?InitOle@@YAHXZ @ 3224 NONAME
	 ?InitOrLoadPersistence@CIPCompDoc@@MAEHPAUIStorage@@H@Z @ 3225 NONAME
	 ?InitPage@COleAllPage@@UAEXXZ @ 3226 NONAME
	 ?InitPage@CSlobPage@@UAEXXZ @ 3227 NONAME
	 ?InitPaletteBorders@@YAXXZ @ 3228 NONAME
	 ?InitProductId@@YAHPAUHINSTANCE__@@@Z @ 3229 NONAME
	 ?InitRepeatableCommands@CTheApp@@QAEXXZ @ 3230 NONAME
	 ?InitScopeList@CKeyCustDlg@@MAEHH@Z @ 3231 NONAME
	 ?InitStdCompMgr@CTheApp@@AAEHXZ @ 3232 NONAME
	 ?InitTreeCtrl@CBldWizSelectDlg@@AAEHXZ @ 3233 NONAME
	 ?InPageCache@COlePage@@SAHKPAPAUIUnknown@@@Z @ 3234 NONAME
	 ?Insert@CUndoSlob@@QAEIPBXH@Z @ 3235 NONAME
	 ?InsertAfter@CDirList@@QAEPAU__POSITION@@PAU2@PAVCDir@@@Z @ 3236 NONAME
	 ?InsertAfter@CPathList@@QAEPAU__POSITION@@PAU2@PAVCPath@@@Z @ 3237 NONAME
	 ?InsertBefore@CDirList@@QAEPAU__POSITION@@PAU2@PAVCDir@@@Z @ 3238 NONAME
	 ?InsertBefore@CPathList@@QAEPAU__POSITION@@PAU2@PAVCPath@@@Z @ 3239 NONAME
	 ?InsertButton@CASBar@@UAEHHAAUTRANSFER_TBBUTTON@@HW4GAP@@@Z @ 3240 NONAME
	 ?InsertButton@CCustomBar@@UAEHHAAUTRANSFER_TBBUTTON@@HW4GAP@@@Z @ 3241 NONAME
	 ?InsertButton@CCustomBarProxy@@UAEHHAAUTRANSFER_TBBUTTON@@HW4GAP@@@Z @ 3242 NONAME
	 ?InsertButton@CMenuPopupProxy@@UAEHHAAUTRANSFER_TBBUTTON@@HW4GAP@@@Z @ 3243 NONAME
	 ?InsertEntry@CPickList@@QAEHW4PickListType@@PAUFINDREPLACEDISK@@@Z @ 3244 NONAME
	 ?InsertEntry@CPickList@@QAEHW4PickListType@@PBD@Z @ 3245 NONAME
	 ?InsertItem@CProjTypeIconList@@QAEXHPAVCProjTypeListItem@@@Z @ 3246 NONAME
	 ?InsertItem@CProjTypeList@@QAEXHPAVCProjTypeListItem@@@Z @ 3247 NONAME
	 ?InsertLevel@CTreeCtl@@UAEHPAVCNode@@HH@Z @ 3248 NONAME
	 ?InsertMenuA@CBMenuPopup@@QAEHIIIPBDPAV1@H@Z @ 3249 NONAME
	 ?InsertNode@CTreeCtl@@QAEHHPBDK@Z @ 3250 NONAME
	 ?InsertNode@CTreeCtl@@QAEHPAVCNode@@HPBDKAAPAV2@AAHH@Z @ 3251 NONAME
	 ?InsertRow@CDockWnd@@IAEXPAU_DWI@@HHK@Z @ 3252 NONAME
	 ?InsertSel@CUndoSlob@@QAEXIPAVCMultiSlob@@PAVCObList@@@Z @ 3253 NONAME
	 ?InsertSeparator@CCustomBar@@IAEXH@Z @ 3254 NONAME
	 ?InsertSeparator@CCustomBarProxy@@UAEXH@Z @ 3255 NONAME
	 ?InsertSeparator@CMenuPopupProxy@@UAEXH@Z @ 3256 NONAME
	 ?InsertStr@CUndoSlob@@QAEIPBD@Z @ 3257 NONAME
	 ?InsertString@CProjTypeList@@QAEHHPBD@Z @ 3258 NONAME
	 ?InsertString@CStringListGridWnd@@QAEHHPBD@Z @ 3259 NONAME
	 ?InsertWorker@CDockManager@@QAEXPAVCDockWorker@@@Z @ 3260 NONAME
	 ?InterfaceSupportsErrorInfo@XSupportErrorInfo@CApplication@@UAGJABU_GUID@@@Z @ 3261 NONAME
	 ?InterfaceSupportsErrorInfo@XSupportErrorInfo@CAutoDocumentDefault@@UAGJABU_GUID@@@Z @ 3262 NONAME
	 ?InterfaceSupportsErrorInfo@XSupportErrorInfo@CAutoDocuments@@UAGJABU_GUID@@@Z @ 3263 NONAME
	 ?InterfaceSupportsErrorInfo@XSupportErrorInfo@CAutoProjects@@UAGJABU_GUID@@@Z @ 3264 NONAME
	 ?InterfaceSupportsErrorInfo@XSupportErrorInfo@CAutoWindowDefault@@UAGJABU_GUID@@@Z @ 3265 NONAME
	 ?InterfaceSupportsErrorInfo@XSupportErrorInfo@CAutoWindows@@UAGJABU_GUID@@@Z @ 3266 NONAME
	 ?IntersectElements@CIPCompSlob@@IAEHPAUIUnknown@@@Z @ 3267 NONAME
	 ?IntersectPropEnumInt@COleAllPage@@IAEHPAUIDispatch@@JPAVCPropItem@@PAUITypeInfo@@PAUtagTYPEDESC@@@Z @ 3268 NONAME
	 ?IntersectPropEnumString@COleAllPage@@IAEHPAUIDispatch@@JPAVCPropItem@@@Z @ 3269 NONAME
	 ?IntersectPropItemData@COleAllPage@@IAEHPAUIDispatch@@JPAVCPropItem@@PAUITypeInfo@@PAUtagTYPEDESC@@@Z @ 3270 NONAME
	 ?IntersectToMap@COleAllPage@@IAEHPAVCMapStringToPtr@@K@Z @ 3271 NONAME
	 ?Invalidate@CGridCell@@QAEXH@Z @ 3272 NONAME
	 ?Invalidate@CGridElement@@QAEXHH@Z @ 3273 NONAME
	 ?InvalidateButton@COldToolBar@@IAEXH@Z @ 3274 NONAME
	 ?InvalidateCheck@CCheckList@@IAEXH@Z @ 3275 NONAME
	 ?InvalidateColumn@CGridWnd@@QAEXHH@Z @ 3276 NONAME
	 ?InvalidateContent@CTap@@QAEXH@Z @ 3277 NONAME
	 ?InvalidateItem@CBMenuPopup@@QAEXH@Z @ 3278 NONAME
	 ?InvalidateLeft@CDropControl@@QAEXXZ @ 3279 NONAME
	 ?InvalidatePropertyBrowser@@YAXXZ @ 3280 NONAME
	 ?InvalidateRight@CDropControl@@QAEXXZ @ 3281 NONAME
	 ?InvalidateSelection@CGridWnd@@QAEXPAVCGridElement@@@Z @ 3282 NONAME
	 ?InvalidateStatusBar@@YAXH@Z @ 3283 NONAME
	 ?InvalidateTab@CTabRow@@QAEXHH@Z @ 3284 NONAME
	 ?InvalItem@CTreeCtl@@QAEXH@Z @ 3285 NONAME
	 ?InvalSelection@CTreeCtl@@QAEXXZ @ 3286 NONAME
	 ?InvertResizeTracker@CGridCaptionCell@@QAEXPAVCDC@@@Z @ 3287 NONAME
	 ?Invoke@CMyOleDispatchImpl@@UAGJJABU_GUID@@KGPAUtagDISPPARAMS@@PAUtagVARIANT@@PAUtagEXCEPINFO@@PAI@Z @ 3288 NONAME
	 ?Invoke@XAmbientDispatch@CIPCompContainerItem@@UAGJJABU_GUID@@KGPAUtagDISPPARAMS@@PAUtagVARIANT@@PAUtagEXCEPINFO@@PAI@Z @ 3289 NONAME
	 ?Invoke@XApplication@CApplication@@EAGJJABU_GUID@@KGPAUtagDISPPARAMS@@PAUtagVARIANT@@PAUtagEXCEPINFO@@PAI@Z @ 3290 NONAME
	 ?Invoke@XDocuments@CAutoDocuments@@EAGJJABU_GUID@@KGPAUtagDISPPARAMS@@PAUtagVARIANT@@PAUtagEXCEPINFO@@PAI@Z @ 3291 NONAME
	 ?Invoke@XDualObjs@CAutoCollection@@EAGJJABU_GUID@@KGPAUtagDISPPARAMS@@PAUtagVARIANT@@PAUtagEXCEPINFO@@PAI@Z @ 3292 NONAME
	 ?Invoke@XGenericDocument@CAutoDocumentDefault@@EAGJJABU_GUID@@KGPAUtagDISPPARAMS@@PAUtagVARIANT@@PAUtagEXCEPINFO@@PAI@Z @ 3293 NONAME
	 ?Invoke@XGenericWindow@CAutoWindowDefault@@EAGJJABU_GUID@@KGPAUtagDISPPARAMS@@PAUtagVARIANT@@PAUtagEXCEPINFO@@PAI@Z @ 3294 NONAME
	 ?Invoke@XProjects@CAutoProjects@@EAGJJABU_GUID@@KGPAUtagDISPPARAMS@@PAUtagVARIANT@@PAUtagEXCEPINFO@@PAI@Z @ 3295 NONAME
	 ?Invoke@XWindows@CAutoWindows@@EAGJJABU_GUID@@KGPAUtagDISPPARAMS@@PAUtagVARIANT@@PAUtagEXCEPINFO@@PAI@Z @ 3296 NONAME
	 ?InvokeHelperV@CMiniOleDispatchDriver@@QAEHJGPBEPAD@Z @ 3297 NONAME
	 ?IsAbsolutePath@@YAHPBD@Z @ 3298 NONAME
	 ?IsAccelLegal@CTap@@QBEHXZ @ 3299 NONAME
	 ?IsActive@CIME@@QAEHXZ @ 3300 NONAME
	 ?IsActive@CTE@@QAEHXZ @ 3301 NONAME
	 ?IsBackColorTheSame@CElList@@QAEHIAAVCFmtElementIterator@@HHAAK@Z @ 3302 NONAME
	 ?IsButton@CTabbedDialog@@IAEHPAUHWND__@@@Z @ 3303 NONAME
	 ?IsCategoryAlwaysVisible@CPackage@@UAEHI@Z @ 3304 NONAME
	 ?IsCategoryTextual@CPackage@@UAEHI@Z @ 3305 NONAME
	 ?IsCBMenuCmdUI@CBMenuPopup@@SAHPAVCCmdUI@@@Z @ 3306 NONAME
	 ?IsChordLegal@CTap@@QBEHXZ @ 3307 NONAME
	 ?IsClockEnabled@@YAHXZ @ 3308 NONAME
	 ?IsCommandKeyBound@CTheApp@@QAEHG@Z @ 3309 NONAME
	 ?IsContextMenu@@YAHPAVCCmdUI@@@Z @ 3310 NONAME
	 ?IsCopy@CDragNDrop@@UAEHXZ @ 3311 NONAME
	 ?IsCustomizing@CBMenuPopup@@QAEHXZ @ 3312 NONAME
	 ?IsCustomizing@CTheApp@@QAEHXZ @ 3313 NONAME
	 ?IsDependent@CPartFrame@@UAEHXZ @ 3314 NONAME
	 ?IsDependent@CPartView@@UAEHXZ @ 3315 NONAME
	 ?IsDirty@CFormatInfo@@QBEHXZ @ 3316 NONAME
	 ?IsDominantSelected@CMultiSlob@@QBEHPAVCSlob@@@Z @ 3317 NONAME
	 ?IsDominantSelected@CSlobWnd@@QAEHPAVCSlob@@@Z @ 3318 NONAME
	 ?IsDragDropInProgress@@YAHXZ @ 3319 NONAME
	 ?IsEnabled@CIME@@QAEHXZ @ 3320 NONAME
	 ?IsExecutableFile@@YAHPBD@Z @ 3321 NONAME
	 ?IsExpanded@CTreeCtl@@UAEHH@Z @ 3322 NONAME
	 ?IsExternalSelectChange@CInternalTrackSelection@@IAEJPAF@Z @ 3323 NONAME
	 ?IsExternalSelectChange@XInternalTrackSelection@CInternalTrackSelection@@UAGJPAF@Z @ 3324 NONAME
	 ?IsFileGUIExe@@YAHPAD@Z @ 3325 NONAME
	 ?IsFileWritable@@YAHPBD@Z @ 3326 NONAME
	 ?IsFiltered@CPartDoc@@UAEHI@Z @ 3327 NONAME
	 ?IsFindComboActive@@YAHXZ @ 3328 NONAME
	 ?IsForeColorTheSame@CElList@@QAEHIAAVCFmtElementIterator@@HHAAK@Z @ 3329 NONAME
	 ?IsFrameSaveable@COpenDocsDlg@@AAEHPAVCPartFrame@@@Z @ 3330 NONAME
	 ?IsGap@CCustomBar@@QAEHH@Z @ 3331 NONAME
	 ?IsGapItem@CCustomBarProxy@@UAEHH@Z @ 3332 NONAME
	 ?IsGapItem@CMenuPopupProxy@@UAEHH@Z @ 3333 NONAME
	 ?IsIconic@CSlobWnd@@QAEHXZ @ 3334 NONAME
	 ?IsIdleMessage@CTheApp@@UAEHPAUtagMSG@@@Z @ 3335 NONAME
	 ?IsInCmdBarMode@Menu@@YAHXZ @ 3336 NONAME
	 ?IsInDialog@CCustomBar@@QAEHXZ @ 3337 NONAME
	 ?IsInDialog@CCustomBarProxy@@UAEHXZ @ 3338 NONAME
	 ?IsInDialog@CMenuPopupProxy@@UAEHXZ @ 3339 NONAME
	 ?IsIndicator@CSushiBar@@QAEHI@Z @ 3340 NONAME
	 ?IsInsert@CDockWnd@@QAEHVCRect@@PAHH@Z @ 3341 NONAME
	 ?IsIntrinsicBuilder@COleAllPage@@IAEHU_GUID@@@Z @ 3342 NONAME
	 ?IsInWorkspace@CMDIChildDock@@UAEHXZ @ 3343 NONAME
	 ?IsInWorkspace@CPartFrame@@UAEHXZ @ 3344 NONAME
	 ?IsItErrorOrWarning@CConsoleSpawner@@QAEHPAD@Z @ 3345 NONAME
	 ?IsJapaneseSystem@@YAHXZ @ 3346 NONAME
	 ?IsMDIHost@CCustomBar@@IBEHXZ @ 3347 NONAME
	 ?IsMenu@@YAHPAVCCmdUI@@@Z @ 3348 NONAME
	 ?IsMenuAccel@CKeyCustDlg@@QAEHG@Z @ 3349 NONAME
	 ?IsMenuVisible@CPackage@@UAEHI@Z @ 3350 NONAME
	 ?IsMenuVisible@CVshellPackage@@UAEHI@Z @ 3351 NONAME
	 ?IsMetaCATID@@YAHPAUHKEY__@@@Z @ 3352 NONAME
	 ?IsModified@CDocObjectContainerItem@@UAEHXZ @ 3353 NONAME
	 ?IsModified@CDocObjectDoc@@UAEHXZ @ 3354 NONAME
	 ?IsModified@CDocument@@UAEHXZ @ 3355 NONAME
	 ?IsMSVCWindow@@YAHPAUHWND__@@@Z @ 3356 NONAME
	 ?IsOnlySelected@CMultiSlob@@QBEHPAVCSlob@@@Z @ 3357 NONAME
	 ?IsOnlySelected@CSlobWnd@@QAEHPAVCSlob@@@Z @ 3358 NONAME
	 ?IsOpen@CIME@@QAEHXZ @ 3359 NONAME
	 ?IsPackageLoaded@@YAHI@Z @ 3360 NONAME
	 ?IsPageActive@C3dPropertyPage@@UAEHXZ @ 3361 NONAME
	 ?IsPageActive@COlePage@@UAEHXZ @ 3362 NONAME
	 ?IsPageDisabled@C3dPropertyPage@@UAEHXZ @ 3363 NONAME
	 ?IsPageDisabled@CSlobPage@@UAEHXZ @ 3364 NONAME
	 ?IsPaneIndependent@CDefProvidedNode@@UAEHXZ @ 3365 NONAME
	 ?IsPinned@CPropFrameToolBar@@QAEHXZ @ 3366 NONAME
	 ?IsPinned@CSheetWnd@@QAEHXZ @ 3367 NONAME
	 ?IsProjectNameValid@@YAHPBD@Z @ 3368 NONAME
	 ?IsPromptSetUntilIdle@@YAHXZ @ 3369 NONAME
	 ?IsPropAPathProperty@COleAllPage@@IAEHPAUITypeInfo@@J@Z @ 3370 NONAME
	 ?IsPropertyBrowserInCancel@@YAHXZ @ 3371 NONAME
	 ?IsPropertyBrowserPinned@@YAHXZ @ 3372 NONAME
	 ?IsPropertyBrowserValidating@@YAHXZ @ 3373 NONAME
	 ?IsPropertyBrowserVisible@@YAHXZ @ 3374 NONAME
	 ?IsPropTypeReadOnly@COleAllPage@@IAEHPAUtagVARDESC@@PAUtagFUNCDESC@@H@Z @ 3375 NONAME
	 ?IsProtocol@@YAPAUcbsz@@PBDH@Z @ 3376 NONAME
	 ?IsReadOnly@CPartDoc@@UAEHXZ @ 3377 NONAME
	 ?IsReadOnlyEx@CPartDoc@@UAEHH@Z @ 3378 NONAME
	 ?IsReadOnlyOnDisk@CDocObjectContainerItem@@UAEHXZ @ 3379 NONAME
	 ?IsReadOnlyOnDisk@CPartDoc@@UBEHXZ @ 3380 NONAME
	 ?IsRegistered@COleObjectFactory@@UBEHXZ @ 3381 NONAME
	 ?IsRootDir@CDir@@QBEHXZ @ 3382 NONAME
	 ?IsRowEmpty@CDockWnd@@IAEHPAU_DWI@@H@Z @ 3383 NONAME
	 ?IsSBKatakana@@YAHE@Z @ 3384 NONAME
	 ?IsSelected@CDocObjectView@@MBEHPBVCObject@@@Z @ 3385 NONAME
	 ?IsSelected@CMultiSlob@@QBEHPAVCSlob@@@Z @ 3386 NONAME
	 ?IsSelected@CSlobWnd@@QAEHPAVCSlob@@@Z @ 3387 NONAME
	 ?IsShellDefFileVersion@@YAHK@Z @ 3388 NONAME
	 ?IsShowDelayed@CDockManager@@QAEHXZ @ 3389 NONAME
	 ?IsShowingCmdBars@Menu@@YAHXZ @ 3390 NONAME
	 ?IsStaticItem@CCustomBar@@UAEHH@Z @ 3391 NONAME
	 ?IsStaticItem@CCustomBarProxy@@UAEHH@Z @ 3392 NONAME
	 ?IsStaticItem@CMenuPopupProxy@@UAEHH@Z @ 3393 NONAME
	 ?IsStatusBarIndicator@@YAHI@Z @ 3394 NONAME
	 ?IsStatusBarVisible@@YAHXZ @ 3395 NONAME
	 ?IsTabNextFocus@@YAHPAVCDialog@@I@Z @ 3396 NONAME
	 ?IsTabVisible@CTabRow@@AAEHHH@Z @ 3397 NONAME
	 ?isTipAvailable@@YAHXZ @ 3398 NONAME
	 ?isTipAvailable@CTipFile@@UAEHXZ @ 3399 NONAME
	 ?isTipAvailable@CTipFileManager@@UAEHXZ @ 3400 NONAME
	 ?IsTriState@CCheckList@@UAEHH@Z @ 3401 NONAME
	 ?IsTriState@CPropCheckList@@MAEHH@Z @ 3402 NONAME
	 ?IsUIElementEnabled@CTheApp@@UAEHW4UIELEMENT_INDEX@@@Z @ 3403 NONAME
	 ?IsUNCPath@@YAHPBD@Z @ 3404 NONAME
	 ?IsUndoActionListEmpty@COleParentUndoUnit@@UAEHXZ @ 3405 NONAME
	 ?IsUseful@CSlobSequence@@QAEHAAPAVCSlob@@AAH@Z @ 3406 NONAME
	 ?IsValidCtrlSize@CCustomBar@@QAEHPAVCWnd@@@Z @ 3407 NONAME
	 ?IsValidMDICycleMember@@YAHPAVCWnd@@@Z @ 3408 NONAME
	 ?IsValueEqual@CRegLite@@QAEHPBD0@Z @ 3409 NONAME
	 ?IsViewPrintable@COpenDocsDlg@@AAEHPAVCPartView@@@Z @ 3410 NONAME
	 ?IsVisible@CDockWorker@@QAEHXZ @ 3411 NONAME
	 ?IsVisibleControl@CCustomBar@@IBEHH@Z @ 3412 NONAME
	 ?IsVisibleControl@CCustomBarProxy@@UAEHH@Z @ 3413 NONAME
	 ?IsVisibleControl@CMenuPopupProxy@@UAEHH@Z @ 3414 NONAME
	 ?IsVisibleProjectCommand@CPackage@@UAEHIPAU_GUID@@I@Z @ 3415 NONAME
	 ?IsWindowOnScreen@@YAHPAUHWND__@@@Z @ 3416 NONAME
	 ?IsWindowPinned@CFloatingFrameWnd@@QAEHXZ @ 3417 NONAME
	 ?Item@CAutoCollection@@IAEPAUIDispatch@@ABUtagVARIANT@@@Z @ 3418 NONAME
	 ?Item@CAutoDocuments@@IAEPAUIDispatch@@ABUtagVARIANT@@@Z @ 3419 NONAME
	 ?Item@CAutoProjects@@IAEPAUIDispatch@@ABUtagVARIANT@@@Z @ 3420 NONAME
	 ?Item@CAutoWindows@@IAEPAUIDispatch@@ABUtagVARIANT@@@Z @ 3421 NONAME
	 ?Item@XDocuments@CAutoDocuments@@EAGJUtagVARIANT@@PAPAUIDispatch@@@Z @ 3422 NONAME
	 ?Item@XDualObjs@CAutoCollection@@EAGJUtagVARIANT@@PAPAUIDispatch@@@Z @ 3423 NONAME
	 ?Item@XProjects@CAutoProjects@@EAGJUtagVARIANT@@PAPAUIGenericProject@@@Z @ 3424 NONAME
	 ?Item@XWindows@CAutoWindows@@EAGJUtagVARIANT@@PAPAUIDispatch@@@Z @ 3425 NONAME
	 ?ItemFromPoint@CTreeListBox@@AAEHABVCPoint@@@Z @ 3426 NONAME
	 ?ItemStringOut@CCheckList@@MAEXPAVCDC@@ABVCString@@ABVCRect@@@Z @ 3427 NONAME
	 ?KcFromAccel@@YAGABUtagACCEL@@@Z @ 3428 NONAME
	 ?KeyDown@CASBar@@UAEHIII@Z @ 3429 NONAME
	 ?KeyDown@CBMenuPopup@@QAEXIII@Z @ 3430 NONAME
	 ?KeySetSel@CTreeCtl@@UAEXHH@Z @ 3431 NONAME
	 ?LimitHash@@YAKPBD@Z @ 3432 NONAME
	 ?LnColMinWidth@@YAIPAVCDC@@II@Z @ 3433 NONAME
	 ?Load@CGridCtl3dInterface@@QAEXXZ @ 3434 NONAME
	 ?Load@CImageWell@@QAEHIVCSize@@@Z @ 3435 NONAME
	 ?LoadAcceleratorsA@CKeymap@@QAEXPAUHACCEL__@@@Z @ 3436 NONAME
	 ?LoadAcceleratorsA@CKeymap@@QAEXPAUHINSTANCE__@@PBD@Z @ 3437 NONAME
	 ?LoadAllPageOnly@COlePage@@SAIKPAPAUIUnknown@@@Z @ 3438 NONAME
	 ?LoadBitmapA@CBitmap@@QAEHI@Z @ 3439 NONAME
	 ?LoadBitmapA@CCustomBar@@QAEHPBDH@Z @ 3440 NONAME
	 ?LoadBitmapA@COldToolBar@@QAEHI@Z @ 3441 NONAME
	 ?LoadBitmapA@COldToolBar@@QAEHPBD@Z @ 3442 NONAME
	 ?LoadBitmapA@CSushiBar@@QAEPAUHBITMAP__@@HH@Z @ 3443 NONAME
	 ?LoadCommandBitmap@TRANSFER_TBBUTTON@@QAEXH@Z @ 3444 NONAME
	 ?LoadData@CDockWorker@@QAEXXZ @ 3445 NONAME
	 ?LoadDIBResource@@YAPADI@Z @ 3446 NONAME
	 ?LoadDIBResource@@YAPADPBD@Z @ 3447 NONAME
	 ?LoadEditorAccelerators@CKeymap@@UAEXXZ @ 3448 NONAME
	 ?LoadError@@YAHPAXIPADI@Z @ 3449 NONAME
	 ?LoadErrorInfo@@YAXPAUIErrorInfo@@AAVCString@@1PAK@Z @ 3450 NONAME
	 ?LoadFindReplaceStrings@@YAXXZ @ 3451 NONAME
	 ?LoadFrame@CMainFrame@@UAEHIKPAVCWnd@@PAUCCreateContext@@@Z @ 3452 NONAME
	 ?LoadFromReg@CFullScreenState@@QAEXPBD@Z @ 3453 NONAME
	 ?LoadFromRegInt@@YAIPADH@Z @ 3454 NONAME
	 ?LoadFromRegistry@CPickList@@QAEXPAUFINDREPLACEDISK@@@Z @ 3455 NONAME
	 ?LoadFromRegStr@@YA?AVCString@@PADH@Z @ 3456 NONAME
	 ?LoadFromSource@CInitFile@@IAEHXZ @ 3457 NONAME
	 ?LoadGlobalAccelerators@CPackage@@UAEXXZ @ 3458 NONAME
	 ?LoadGlyphWell@CStringListGlyphGridWnd@@QAEHI@Z @ 3459 NONAME
	 ?LoadLastProject@CTheApp@@QAEHXZ @ 3460 NONAME
	 ?LoadLayout@CMainFrame@@QAEXXZ @ 3461 NONAME
	 ?LoadManager@CMainFrame@@QAEHXZ @ 3462 NONAME
	 ?LoadMenuA@CContextPopupMenu@@QAEHI@Z @ 3463 NONAME
	 ?LoadMenuA@CMenu@@QAEHI@Z @ 3464 NONAME
	 ?LoadMenuA@CMenuBtn@@QAEHI@Z @ 3465 NONAME
	 ?LoadMRUList@CTheApp@@QAEXXZ @ 3466 NONAME
	 ?LoadPackages@CTheApp@@QAEHPAH@Z @ 3467 NONAME
	 ?LoadPages@COlePage@@SAIKPAPAUIUnknown@@@Z @ 3468 NONAME
	 ?LoadPrivateAutosaveSettings@CTheApp@@QAEXXZ @ 3469 NONAME
	 ?LoadPrivateProfileSettings@CTheApp@@QAEXXZ @ 3470 NONAME
	 ?LoadSysColor@CImageWell@@QAEHIVCSize@@@Z @ 3471 NONAME
	 ?LoadSysColorBitmap@GLOBAL_DATA@@SAPAUHBITMAP__@@I@Z @ 3472 NONAME
	 ?LoadSysColorBitmap@GLOBAL_DATA@@SAPAUHBITMAP__@@PAUtagBITMAPINFOHEADER@@@Z @ 3473 NONAME
	 ?LoadToolListSetting@@YAXXZ @ 3474 NONAME
	 ?LoadWorkspace@CMainFrame@@QAEHAAVCArchive@@@Z @ 3475 NONAME
	 ?LoadWorkspaceWindow@CMainFrame@@QAEPAVCPartFrame@@AAVCArchive@@HPAPAVCDocument@@PAI@Z @ 3476 NONAME
	 ?LockDockState@CMainFrame@@QAEXH@Z @ 3477 NONAME
	 ?LockFrame@CPartFrame@@SAXH@Z @ 3478 NONAME
	 ?LockFrame@CPartFrame@@SAXPAUHWND__@@@Z @ 3479 NONAME
	 ?LockList@CGoToDialog@@QAEXH@Z @ 3480 NONAME
	 ?LockManager@CCustomDialog@@QAEXH@Z @ 3481 NONAME
	 ?LockManager@CToolbarDialog@@QAEXH@Z @ 3482 NONAME
	 ?LockRecentFileList@CTheApp@@QAEXH@Z @ 3483 NONAME
	 ?LockWorkspace@CPartFrame@@SAXH@Z @ 3484 NONAME
	 ?Lookup@?$CMap@IIPAV?$CTypedPtrArray@VCObArray@@PAVCPack@@@@AAPAV1@@@QBEHIAAPAV?$CTypedPtrArray@VCObArray@@PAVCPack@@@@@Z @ 3485 NONAME
	 ?Lookup@?$CMap@IIPAVCBMenuPopup@@AAPAV1@@@QBEHIAAPAVCBMenuPopup@@@Z @ 3486 NONAME
	 ?Lookup@CMapDirToOb@@QBEHABVCDir@@AAPAVCObject@@@Z @ 3487 NONAME
	 ?Lookup@CMapPathToOb@@QBEHABVCPath@@AAPAVCObject@@@Z @ 3488 NONAME
	 ?LookupCommand@CKeymap@@UAEHIAAG0PAV1@@Z @ 3489 NONAME
	 ?LookupCommand@COverridingKeymap@@UAEHIAAG0PAVCKeymap@@@Z @ 3490 NONAME
	 ?LookupGlobalCommand@@YAHIAAG0@Z @ 3491 NONAME
	 ?LookupKey@CKeymap@@UAEHGAAIAAPAV1@@Z @ 3492 NONAME
	 ?LookupKey@COverridingKeymap@@UAEHGAAIAAPAVCKeymap@@@Z @ 3493 NONAME
	 ?LoseFocus@CASBar@@UAEXXZ @ 3494 NONAME
	 ?LoseFocus@CCustomBar@@UAEXXZ @ 3495 NONAME
	 ?LoseKeyFocus@CASBar@@MAEXXZ @ 3496 NONAME
	 ?MainFrameInitMenuPopup@CBMenuPopup@@QAEXXZ @ 3497 NONAME
	 ?MainLoop@CTheApp@@QAEHPAXHK@Z @ 3498 NONAME
	 ?MaintainListSel@CKeyCustDlg@@QAEHPAVCListBox@@K@Z @ 3499 NONAME
	 ?MakeAccelName@CTap@@SA?AVCString@@AAUtagACCEL@@@Z @ 3500 NONAME
	 ?MakeCurrent@CDir@@QBEHXZ @ 3501 NONAME
	 ?MakeDirectory@CDir@@IBEHPBD@Z @ 3502 NONAME
	 ?MakeFileLCase@@YAXPADPBD@Z @ 3503 NONAME
	 ?MakeSureWindowIsVisible@@YAXPAUHWND__@@@Z @ 3504 NONAME
	 ?MakeWriteable@CFileSaver@@QBEHXZ @ 3505 NONAME
	 ?MapBuilderCATIDToCLSID@XBuilderWizardManager@CBuilderWizardManager@@UAGJABU_GUID@@KPAUHWND__@@PAU3@@Z @ 3506 NONAME
	 ?MapBuilderCATIDToCLSID@XIPCompBuilderWizardManager@CIPCompBuilderWizardManager@@UAGJABU_GUID@@KPAUHWND__@@PAU3@@Z @ 3507 NONAME
	 ?MapCmdToWorker@CDockManager@@QAEXII@Z @ 3508 NONAME
	 ?MapDataType@COleAllPage@@IAE?AW4DataType@@G@Z @ 3509 NONAME
	 ?MapDockingCmd@CMainFrame@@QAEXII@Z @ 3510 NONAME
	 ?MapDockingCmds@CMainFrame@@QAEXXZ @ 3511 NONAME
	 ?MapObjectToBuilderCLSID@XBuilderWizardManager@CBuilderWizardManager@@UAGJABU_GUID@@KPAUHWND__@@PAU3@@Z @ 3512 NONAME
	 ?MapObjectToBuilderCLSID@XIPCompBuilderWizardManager@CIPCompBuilderWizardManager@@UAGJABU_GUID@@KPAUHWND__@@PAU3@@Z @ 3513 NONAME
	 ?MarkAll@CPartView@@UAEHPAUFINDREPLACEDISK@@@Z @ 3514 NONAME
	 ?MatchDocType@CDocObjectTemplate@@UAE?AW4Confidence@CDocTemplate@@PBDAAPAVCDocument@@@Z @ 3515 NONAME
	 ?MatchDocType@CPartTemplate@@UAE?AW4Confidence@CDocTemplate@@PBDAAPAVCDocument@@@Z @ 3516 NONAME
	 ?MaximizeRestore@CDockWnd@@QAEXPAVCWnd@@@Z @ 3517 NONAME
	 ?MaximizeRestore@CDockWorker@@QAEXXZ @ 3518 NONAME
	 ?MDIActivate@CMDIChildWnd@@QAEXXZ @ 3519 NONAME
	 ?MDIFrameWnd_PreTranslateMessage@CMainFrame@@IAEHPAUtagMSG@@@Z @ 3520 NONAME
	 ?MDIMaximize@CMDIChildWnd@@QAEXXZ @ 3521 NONAME
	 ?MDINextWindow@CPartFrame@@QAEXHH@Z @ 3522 NONAME
	 ?MDIRestore@CMDIChildWnd@@QAEXXZ @ 3523 NONAME
	 ?MDITypedGetNext@CTheApp@@QAEPAVCPartFrame@@PAV2@IH@Z @ 3524 NONAME
	 ?MeasureItem@CCheckList@@MAEXPAUtagMEASUREITEMSTRUCT@@@Z @ 3525 NONAME
	 ?MeasureItem@CIconList@@MAEXPAUtagMEASUREITEMSTRUCT@@@Z @ 3526 NONAME
	 ?MeasureItem@CKeyListBox@@UAEXPAUtagMEASUREITEMSTRUCT@@@Z @ 3527 NONAME
	 ?MeasureItem@CPropButton@@UAEXPAUtagMEASUREITEMSTRUCT@@@Z @ 3528 NONAME
	 ?MeasureItem@CPropListBox@@UAEXPAUtagMEASUREITEMSTRUCT@@@Z @ 3529 NONAME
	 ?MeasureString@CCustomBar@@IAEXHAAVCSize@@W4ORIENTATION@@@Z @ 3530 NONAME
	 ?MenuDone@CASBar@@UAEXXZ @ 3531 NONAME
	 ?MenuDone@CCustomBar@@UAEXXZ @ 3532 NONAME
	 ?MenuFileText@@YAXAAVCString@@@Z @ 3533 NONAME
	 ?MenuTextOut@GLOBAL_DATA@@QAEXPAVCDC@@PBVCRect@@ABVCString@@I@Z @ 3534 NONAME
	 ?MergeFileData@CFileData@@QAEXPAV1@@Z @ 3535 NONAME
	 ?MergeFilters@@YA?AVCString@@PBD0@Z @ 3536 NONAME
	 ?MergeMenu@CBMenuPopup@@QAEHIIPAV1@@Z @ 3537 NONAME
	 ?MergePageSets@CSheetWnd@@QAEHXZ @ 3538 NONAME
	 ?MergePropertyPageSets@@YAHXZ @ 3539 NONAME
	 ?MessageLoop@CBMenuPopup@@QAEXXZ @ 3540 NONAME
	 ?MessageStolenByTabbedDialog@CTabbedDialog@@QAEHPAUtagMSG@@@Z @ 3541 NONAME
	 ?MinimizeAllMDI@@YAXXZ @ 3542 NONAME
	 ?MinimizeUnselected@COpenDocsDlg@@AAEHXZ @ 3543 NONAME
	 ?ModifyItem@CBMenuItem@@QAEHIPBDPAVCBMenuPopup@@H@Z @ 3544 NONAME
	 ?ModifyMenuA@CBMenuPopup@@QAEHIIIPBDPAV1@@Z @ 3545 NONAME
	 ?Move@CDockWorker@@QAEXW4DOCKPOS@@AAVCRect@@@Z @ 3546 NONAME
	 ?MoveBar@CASBar@@UAEXABVCRect@@@Z @ 3547 NONAME
	 ?MoveBar@CCustomBar@@UAEXABVCRect@@@Z @ 3548 NONAME
	 ?MoveButtons@CTabbedDialog@@MAEXHH@Z @ 3549 NONAME
	 ?MoveConversionWin@CIME@@QAEXPAVCWnd@@HH@Z @ 3550 NONAME
	 ?MovePage@C3dPropertyPage@@UAEXABVCRect@@@Z @ 3551 NONAME
	 ?MovePage@COlePage@@UAEXABVCRect@@@Z @ 3552 NONAME
	 ?MovePBackwards@@YAPAEPAE0@Z @ 3553 NONAME
	 ?MoveUpDown@CStringListGridWnd@@IAEXH@Z @ 3554 NONAME
	 ?MoveWnd@CDockWnd@@QAEXPAVCWnd@@VCRect@@HK@Z @ 3555 NONAME
	 ?MsgBox@@YAHW4tagMsgBoxTypes@@HII@Z @ 3556 NONAME
	 ?MsgBox@@YAHW4tagMsgBoxTypes@@PBDII@Z @ 3557 NONAME
	 ?MsgText@@YAPBDAAVCString@@ABVCPath@@PBDPBVCFileException@@@Z @ 3558 NONAME
	 ?MsgText@@YAPBDAAVCString@@HZZ @ 3559 NONAME
	 ?multiGetCXMetrics@@YAHPAUHWND__@@@Z @ 3560 NONAME
	 ?multiGetCYMetrics@@YAHPAUHWND__@@@Z @ 3561 NONAME
	 ?multiMonitorRectFromPoint@@YAXUtagPOINT@@PAUtagRECT@@H@Z @ 3562 NONAME
	 ?multiMonitorRectFromRect@@YAXUtagRECT@@PAU1@H@Z @ 3563 NONAME
	 ?MungeFlags@@YAKK@Z @ 3564 NONAME
	 ?MyGetSysColor@@YAKI@Z @ 3565 NONAME
	 ?MyPlaySound@@YAHPBDPAUHINSTANCE__@@K@Z @ 3566 NONAME
	 ?NeedIdle@CDockManager@@QAEHXZ @ 3567 NONAME
	 ?NegotiateBorderSpace@CMainFrame@@UAEHIPAUtagRECT@@@Z @ 3568 NONAME
	 ?NewAssoc@?$CMap@IIPAV?$CTypedPtrArray@VCObArray@@PAVCPack@@@@AAPAV1@@@IAEPAUCAssoc@1@XZ @ 3569 NONAME
	 ?NewAssoc@?$CMap@IIPAVCBMenuPopup@@AAPAV1@@@IAEPAUCAssoc@1@XZ @ 3570 NONAME
	 ?NewAssoc@CMapDirToOb@@IAEPAUCAssoc@1@XZ @ 3571 NONAME
	 ?NewAssoc@CMapPathToOb@@IAEPAUCAssoc@1@XZ @ 3572 NONAME
	 ?NewBar@CASBar@@UAEPAVCCustomBar@@IABVCPoint@@@Z @ 3573 NONAME
	 ?NewBar@CCustomBar@@UAEPAV1@IABVCPoint@@@Z @ 3574 NONAME
	 ?NewBar@CCustomBarProxy@@UAEPAVCToolBarProxy@@IABVCPoint@@@Z @ 3575 NONAME
	 ?NewBar@CMenuPopupProxy@@UAEPAVCToolBarProxy@@IABVCPoint@@@Z @ 3576 NONAME
	 ?NewCombo@CGridControlRow@@UAEPAVCComboBox@@XZ @ 3577 NONAME
	 ?NewDocumentFile@CFileNewWizardTemplate@@UAEPAVCPartDoc@@PBDPAUIPkgProject@@0@Z @ 3578 NONAME
	 ?NewDocumentFile@CPartTemplate@@UAEPAVCPartDoc@@PBDPAUIPkgProject@@0@Z @ 3579 NONAME
	 ?NewDocumentHook@CDocObjectDoc@@UAEHXZ @ 3580 NONAME
	 ?NewDocumentHook@CIPCompDoc@@UAEHXZ @ 3581 NONAME
	 ?NewDocumentHook@CPartDoc@@MAEHXZ @ 3582 NONAME
	 ?NewEdit@CGridControlRow@@UAEPAVCEdit@@XZ @ 3583 NONAME
	 ?NewEdit@CStringListGridRow@@UAEPAVCEdit@@XZ @ 3584 NONAME
	 ?NewNode@CDirList@@IAEPAUCNode@1@PAU21@0@Z @ 3585 NONAME
	 ?NewNode@CPathList@@IAEPAUCNode@1@PAU21@0@Z @ 3586 NONAME
	 ?NewOrLoadStorage@CIPCompDoc@@MAEHPBDPAPAUIStorage@@H@Z @ 3587 NONAME
	 ?NewRow@CStringListGridWnd@@MAEXAAPAVCStringListGridRow@@@Z @ 3588 NONAME
	 ?NewString@@YAPADPBD@Z @ 3589 NONAME
	 ?NewWindow@CAutoDocumentDefault@@IAEPAUIDispatch@@XZ @ 3590 NONAME
	 ?NewWindow@CPartDoc@@IAEPAUIDispatch@@XZ @ 3591 NONAME
	 ?NewWindow@XGenericDocument@CAutoDocumentDefault@@EAGJPAPAUIDispatch@@@Z @ 3592 NONAME
	 ?Next@CEnumOleUndoUnit@@UAGJKPAPAUIOleUndoUnit@@PAK@Z @ 3593 NONAME
	 ?Next@CRegistryKeyEnum@@QAEHPBD@Z @ 3594 NONAME
	 ?Next@CTipFile@@UAE?AW4TipStatus@@XZ @ 3595 NONAME
	 ?Next@CTipFileManager@@UAE?AW4TipStatus@@XZ @ 3596 NONAME
	 ?Next@XEnumVariant@CEnumVariantObjs@@UAGJKPAUtagVARIANT@@PAK@Z @ 3597 NONAME
	 ?NodeIsExpandable@CTreeCtl@@UAEHPAVCNode@@@Z @ 3598 NONAME
	 ?NoFrame@CAutoWindowDefault@@QAEXXZ @ 3599 NONAME
	 ?NotifyPackages@CTheApp@@QAEHIPAX0@Z @ 3600 NONAME
	 ?NotifyParent@CTap@@QAEXI@Z @ 3601 NONAME
	 ?NukeInforms@CSheetSlob@@QAEXXZ @ 3602 NONAME
	 ?NullAction@@YAIHIEEPAUpatType@@@Z @ 3603 NONAME
	 ?NYI@@YAXXZ @ 3604 NONAME
	 ?ObscureSprites@CSlobWnd@@UAEXH@Z @ 3605 NONAME
	 ?OleCmdFromId@CIPCompDoc@@UAEHIPAPAU_GUID@@PAK1@Z @ 3606 NONAME
	 ?OleRelease@@YAKAAPAUIFont@@@Z @ 3607 NONAME
	 ?OleRelease@@YAKAAPAUIProvideMultipleClassInfo@@@Z @ 3608 NONAME
	 ?OleRelease@@YAKAAPAUITypeInfo@@@Z @ 3609 NONAME
	 ?OnAccept@CGridControlRow@@UAEHPAVCWnd@@@Z @ 3610 NONAME
	 ?OnAccept@CStringListGridRow@@UAEHPAVCWnd@@@Z @ 3611 NONAME
	 ?OnActivate@C3dPropertyPage@@UAEXXZ @ 3612 NONAME
	 ?OnActivate@CFloatingFrameWnd@@QAEXIPAVCWnd@@H@Z @ 3613 NONAME
	 ?OnActivate@CGoToDialog@@IAEXIPAVCWnd@@H@Z @ 3614 NONAME
	 ?OnActivate@CGridElement@@UAEXHH@Z @ 3615 NONAME
	 ?OnActivate@CMainFrame@@IAEXIPAVCWnd@@H@Z @ 3616 NONAME
	 ?OnActivate@CPaletteWnd@@IAEXIPAVCWnd@@H@Z @ 3617 NONAME
	 ?OnActivate@CSheetWnd@@IAEXIPAVCWnd@@H@Z @ 3618 NONAME
	 ?OnActivate@CStringListGridRow@@UAEXHH@Z @ 3619 NONAME
	 ?OnActivate@CTabbedDialog@@IAEXIPAVCWnd@@H@Z @ 3620 NONAME
	 ?OnActivateApp@CFloatingFrameWnd@@QAEXHPAUHTASK__@@@Z @ 3621 NONAME
	 ?OnActivateApp@CGoToDialog@@IAEXHPAUHTASK__@@@Z @ 3622 NONAME
	 ?OnActivateApp@CMainFrame@@IAEXHPAUHTASK__@@@Z @ 3623 NONAME
	 ?OnActivateDocObjectView@CIPCompView@@QAEJXZ @ 3624 NONAME
	 ?OnActivateMe@CDocObjectContainerItem@@UAEXXZ @ 3625 NONAME
	 ?OnActivateMe@CIPCompContainerItem@@UAEXXZ @ 3626 NONAME
	 ?OnActivateView@CDocObjectView@@UAEXHPAVCView@@0@Z @ 3627 NONAME
	 ?OnActivateView@CPartView@@UAEXHPAVCView@@0@Z @ 3628 NONAME
	 ?OnActivateView@CSlobWnd@@UAEXHPAVCView@@0@Z @ 3629 NONAME
	 ?OnActivationChange@XMsoComponent@CIPCompMainFrame@@UAGXPAUIMsoComponent@@HPBU_MSOCRINFO@@HPBU_MSOCHOSTINFO@@K@Z @ 3630 NONAME
	 ?OnActiveEnableModelss@CIPCompFrameHook@@QAEXKH@Z @ 3631 NONAME
	 ?OnAddProp@CUndoSlob@@QAEXPAVCSlob@@PAVCPropBag@@I@Z @ 3632 NONAME
	 ?OnAddString@CStringListGridWnd@@MAEHH@Z @ 3633 NONAME
	 ?OnAddString@CToolsGrid@@MAEHH@Z @ 3634 NONAME
	 ?OnAddTool@CCustomizeToolsDialog@@QAEHH@Z @ 3635 NONAME
	 ?OnAmbientInvoke@CIPCompDoc@@UAEJJABU_GUID@@KGPAUtagDISPPARAMS@@PAUtagVARIANT@@PAUtagEXCEPINFO@@PAI@Z @ 3636 NONAME
	 ?OnAppAbout@CTheApp@@QAEXXZ @ 3637 NONAME
	 ?OnAppAbout@CVshellPackage@@IAEXXZ @ 3638 NONAME
	 ?OnAppActivate@XMsoComponent@CIPCompMainFrame@@UAGXHK@Z @ 3639 NONAME
	 ?OnAutoObjActivate@CPartFrame@@IAEXIJ@Z @ 3640 NONAME
	 ?OnBarActivate@CASBar@@UAEXXZ @ 3641 NONAME
	 ?OnBarActivate@CCustomBar@@UAEXXZ @ 3642 NONAME
	 ?OnBarActivate@CCustomBarProxy@@UAEXXZ @ 3643 NONAME
	 ?OnBarActivate@CMenuPopupProxy@@UAEXXZ @ 3644 NONAME
	 ?OnBarSelectChanging@CCustomDialog@@IAEJIJ@Z @ 3645 NONAME
	 ?OnBarSizeChanging@CDropControl@@IAEJIJ@Z @ 3646 NONAME
	 ?OnBarSizeChanging@CMainFrame@@IAEJIJ@Z @ 3647 NONAME
	 ?OnBarSizeChanging@CPaletteWnd@@IAEJIJ@Z @ 3648 NONAME
	 ?OnBrowse@CCustomizeToolsDialog@@IAEXXZ @ 3649 NONAME
	 ?OnBrowse@CNewFileDialogTab@@IAEXXZ @ 3650 NONAME
	 ?OnBrowse@CNewOtherDocDialogTab@@IAEXXZ @ 3651 NONAME
	 ?OnBrowse@CNewProjectDialogTab@@IAEXXZ @ 3652 NONAME
	 ?OnBrowse@CNewTemplateDialogTab@@IAEXXZ @ 3653 NONAME
	 ?OnBrowse@CNewWorkspaceDialogTab@@IAEXXZ @ 3654 NONAME
	 ?OnBtnClick@CPropListBox@@IAEXXZ @ 3655 NONAME
	 ?OnButtonChooseAppearance@CToolCustomizer@@QAEXXZ @ 3656 NONAME
	 ?OnButtonCopyImage@CToolCustomizer@@QAEXXZ @ 3657 NONAME
	 ?OnButtonDelete@CToolCustomizer@@QAEXXZ @ 3658 NONAME
	 ?OnButtonGroupStart@CToolCustomizer@@QAEXXZ @ 3659 NONAME
	 ?OnButtonImageOnly@CToolCustomizer@@QAEXXZ @ 3660 NONAME
	 ?OnButtonImageText@CToolCustomizer@@QAEXXZ @ 3661 NONAME
	 ?OnButtonMove@CCustomBarProxy@@UAEXH@Z @ 3662 NONAME
	 ?OnButtonMove@CMenuPopupProxy@@UAEXH@Z @ 3663 NONAME
	 ?OnButtonPasteImage@CToolCustomizer@@QAEXXZ @ 3664 NONAME
	 ?OnButtonPressed@CASBar@@MAEHH@Z @ 3665 NONAME
	 ?OnButtonPressed@CCustomBar@@MAEHH@Z @ 3666 NONAME
	 ?OnButtonPressed@COldToolBar@@MAEHH@Z @ 3667 NONAME
	 ?OnButtonReset@CToolCustomizer@@QAEXXZ @ 3668 NONAME
	 ?OnButtonResetImage@CToolCustomizer@@QAEXXZ @ 3669 NONAME
	 ?OnButtonSize@CASBar@@UAEXXZ @ 3670 NONAME
	 ?OnButtonSize@CCustomBar@@UAEXXZ @ 3671 NONAME
	 ?OnButtonSize@CCustomBarProxy@@UAEXXZ @ 3672 NONAME
	 ?OnButtonSize@CMenuPopupProxy@@UAEXXZ @ 3673 NONAME
	 ?OnButtonTextOnly@CToolCustomizer@@QAEXXZ @ 3674 NONAME
	 ?OnCancel@C3dFileDialog@@UAEXXZ @ 3675 NONAME
	 ?OnCancel@CCustomButtonDlg@@MAEXXZ @ 3676 NONAME
	 ?OnCancel@CDlgTab@@EAEXXZ @ 3677 NONAME
	 ?OnCancel@CFileNewTabbedDialog@@UAEXXZ @ 3678 NONAME
	 ?OnCancel@CGoToDialog@@MAEXXZ @ 3679 NONAME
	 ?OnCancel@CMainFrame@@QAEXXZ @ 3680 NONAME
	 ?OnCancel@CTabbedDialog@@UAEXXZ @ 3681 NONAME
	 ?OnCancelEditCntr@CDocObjectView@@IAEXXZ @ 3682 NONAME
	 ?OnCancelMode@COldToolBar@@IAEXXZ @ 3683 NONAME
	 ?OnChange@CStringListGridWnd@@MAEHH@Z @ 3684 NONAME
	 ?OnChange@CToolsGrid@@MAEHH@Z @ 3685 NONAME
	 ?OnChangeBackColor@CFontColorDlg@@IAEXXZ @ 3686 NONAME
	 ?OnChangeButtonText@CCustomButtonDlg@@IAEXXZ @ 3687 NONAME
	 ?OnChangeCbChain@CCustomButtonDlg@@IAEXPAUHWND__@@0@Z @ 3688 NONAME
	 ?OnChangeColumnText@CGridControlRow@@UAEXHPBD@Z @ 3689 NONAME
	 ?OnChanged@COleAllPage@@IAEJJ@Z @ 3690 NONAME
	 ?OnChanged@XPropertyNotifySink@COleAllPage@@UAGJJ@Z @ 3691 NONAME
	 ?OnChangeElement@CFontColorDlg@@IAEXXZ @ 3692 NONAME
	 ?OnChangeFont@CFontColorDlg@@IAEXXZ @ 3693 NONAME
	 ?OnChangeForeColor@CFontColorDlg@@IAEXXZ @ 3694 NONAME
	 ?OnChangeGoToEdit@CGoToDialog@@IAEXXZ @ 3695 NONAME
	 ?OnChangeLocation@CNewFileDialogTab@@IAEXXZ @ 3696 NONAME
	 ?OnChangeLocation@CNewOtherDocDialogTab@@IAEXXZ @ 3697 NONAME
	 ?OnChangeLocation@CNewProjectDialogTab@@IAEXXZ @ 3698 NONAME
	 ?OnChangeLocation@CNewTemplateDialogTab@@IAEXXZ @ 3699 NONAME
	 ?OnChangeLocation@CNewWorkspaceDialogTab@@IAEXXZ @ 3700 NONAME
	 ?OnChangeName@CNewBarDialog@@IAEXXZ @ 3701 NONAME
	 ?OnChangeName@CNewFileDialogTab@@IAEXXZ @ 3702 NONAME
	 ?OnChangeName@CNewOtherDocDialogTab@@IAEXXZ @ 3703 NONAME
	 ?OnChangeName@CNewProjectDialogTab@@IAEXXZ @ 3704 NONAME
	 ?OnChangeName@CNewTemplateDialogTab@@IAEXXZ @ 3705 NONAME
	 ?OnChangeName@CNewWorkspaceDialogTab@@IAEXXZ @ 3706 NONAME
	 ?OnChangeSize@CFontColorDlg@@IAEXXZ @ 3707 NONAME
	 ?OnChangeTap@CKeyCustDlg@@IAEXXZ @ 3708 NONAME
	 ?OnChangeTool@CCustomizeToolsDialog@@QAEHH@Z @ 3709 NONAME
	 ?OnChangeWindow@CFontColorDlg@@IAEXXZ @ 3710 NONAME
	 ?OnChar@CGridControlWnd@@IAEXIII@Z @ 3711 NONAME
	 ?OnChar@CPropEdit@@IAEXIII@Z @ 3712 NONAME
	 ?OnChar@CPropListBox@@IAEXIII@Z @ 3713 NONAME
	 ?OnChar@CTreeCtl@@UAEHI@Z @ 3714 NONAME
	 ?OnChar@CTreeListBox@@IAEXIII@Z @ 3715 NONAME
	 ?OnCharToItem@CTreeCtl@@IAEHIPAVCListBox@@I@Z @ 3716 NONAME
	 ?OnChildKillFocus@CDockWorker@@QAEXPAVCWnd@@@Z @ 3717 NONAME
	 ?OnChildSetFocus@CDockWorker@@QAEXPAVCWnd@@@Z @ 3718 NONAME
	 ?OnClear@CGridControlWnd@@IAEXXZ @ 3719 NONAME
	 ?OnClickAddToCurrent@CNewProjectDialogTab@@IAEXXZ @ 3720 NONAME
	 ?OnClickAddToProject@CNewFileDialogTab@@IAEXXZ @ 3721 NONAME
	 ?OnClickAddToProject@CNewOtherDocDialogTab@@IAEXXZ @ 3722 NONAME
	 ?OnClickAddToProject@CNewTemplateDialogTab@@IAEXXZ @ 3723 NONAME
	 ?OnClickCreateNew@CNewProjectDialogTab@@IAEXXZ @ 3724 NONAME
	 ?OnClickDependencyOf@CNewProjectDialogTab@@IAEXXZ @ 3725 NONAME
	 ?OnClicked@CMenuBtn@@IAEXXZ @ 3726 NONAME
	 ?OnClickedAssign@CKeyCustDlg@@IAEXXZ @ 3727 NONAME
	 ?OnClickedDelete@CToolbarDialog@@IAEXXZ @ 3728 NONAME
	 ?OnClickedFindNext@CFindStringDlg@@IAEXXZ @ 3729 NONAME
	 ?OnClickedKeys@CToolbarDialog@@IAEXXZ @ 3730 NONAME
	 ?OnClickedLargeToolBars@CToolbarDialog@@IAEXXZ @ 3731 NONAME
	 ?OnClickedMarkAll@CFindStringDlg@@IAEXXZ @ 3732 NONAME
	 ?OnClickedNew@CToolbarDialog@@IAEXXZ @ 3733 NONAME
	 ?OnClickedRemove@CKeyCustDlg@@IAEXXZ @ 3734 NONAME
	 ?OnClickedReset@CToolbarDialog@@IAEXXZ @ 3735 NONAME
	 ?OnClickedResetAll@CKeyCustDlg@@IAEXXZ @ 3736 NONAME
	 ?OnClickedResetAllBars@CToolbarDialog@@IAEXXZ @ 3737 NONAME
	 ?OnClickedResetAllMenus@CCustomDialog@@IAEXXZ @ 3738 NONAME
	 ?OnClickedSearchAll@CFindStringDlg@@IAEXXZ @ 3739 NONAME
	 ?OnClickedToolTips@CToolbarDialog@@IAEXXZ @ 3740 NONAME
	 ?OnClose@CDocObjectFrame@@IAEXXZ @ 3741 NONAME
	 ?OnClose@CHelpKeyWnd@@IAEXXZ @ 3742 NONAME
	 ?OnClose@CMainFrame@@IAEXXZ @ 3743 NONAME
	 ?OnClose@CMDIChildDock@@IAEXXZ @ 3744 NONAME
	 ?OnClose@CPaletteWnd@@IAEXXZ @ 3745 NONAME
	 ?OnClose@CPartFrame@@IAEXXZ @ 3746 NONAME
	 ?OnClose@CSheetWnd@@IAEXXZ @ 3747 NONAME
	 ?OnClose@CTabbedDialog@@IAEXXZ @ 3748 NONAME
	 ?OnClose@CWnd@@IAEXXZ @ 3749 NONAME
	 ?OnCloseDocument@CPartDoc@@UAEXXZ @ 3750 NONAME
	 ?OnCmdHelp@CSheetWnd@@IAEXXZ @ 3751 NONAME
	 ?OnCmdMsg@CGridControlWnd@@UAEHIHPAXPAUAFX_CMDHANDLERINFO@@@Z @ 3752 NONAME
	 ?OnCmdMsg@CIPCompView@@UAEHIHPAXPAUAFX_CMDHANDLERINFO@@@Z @ 3753 NONAME
	 ?OnCmdMsg@CMainFrame@@MAEHIHPAXPAUAFX_CMDHANDLERINFO@@@Z @ 3754 NONAME
	 ?OnCmdMsg@CProjSlob@@UAEHIHPAXPAUAFX_CMDHANDLERINFO@@@Z @ 3755 NONAME
	 ?OnCmdMsg@CTheApp@@UAEHIHPAXPAUAFX_CMDHANDLERINFO@@@Z @ 3756 NONAME
	 ?OnCmdMsg@CVshellPackage@@UAEHIHPAXPAUAFX_CMDHANDLERINFO@@@Z @ 3757 NONAME
	 ?OnCmdPushPin@CSheetWnd@@IAEXXZ @ 3758 NONAME
	 ?OnCmdRepeat@CVshellPackage@@IAEXXZ @ 3759 NONAME
	 ?OnCmdRepeat0@CVshellPackage@@IAEXXZ @ 3760 NONAME
	 ?OnCmdRepeat1@CVshellPackage@@IAEXXZ @ 3761 NONAME
	 ?OnCmdRepeat2@CVshellPackage@@IAEXXZ @ 3762 NONAME
	 ?OnCmdRepeat3@CVshellPackage@@IAEXXZ @ 3763 NONAME
	 ?OnCmdRepeat4@CVshellPackage@@IAEXXZ @ 3764 NONAME
	 ?OnCmdRepeat5@CVshellPackage@@IAEXXZ @ 3765 NONAME
	 ?OnCmdRepeat6@CVshellPackage@@IAEXXZ @ 3766 NONAME
	 ?OnCmdRepeat7@CVshellPackage@@IAEXXZ @ 3767 NONAME
	 ?OnCmdRepeat8@CVshellPackage@@IAEXXZ @ 3768 NONAME
	 ?OnCmdRepeat9@CVshellPackage@@IAEXXZ @ 3769 NONAME
	 ?OnCollapse@CTreeCtl@@QAEXXZ @ 3770 NONAME
	 ?OnColorChange@CPackage@@UAEXXZ @ 3771 NONAME
	 ?OnCommand@C3dFileDialog@@UAEHIJ@Z @ 3772 NONAME
	 ?OnCommand@CBorderBar@@MAEHIJ@Z @ 3773 NONAME
	 ?OnCommand@CMainFrame@@MAEHIJ@Z @ 3774 NONAME
	 ?OnCommand@CMessageBox@@UAEHIJ@Z @ 3775 NONAME
	 ?OnCommand@CPaletteWnd@@MAEHIJ@Z @ 3776 NONAME
	 ?OnCommand@CSlobPage@@MAEHIJ@Z @ 3777 NONAME
	 ?OnCommand_Tools@CVshellPackage@@QAEXI@Z @ 3778 NONAME
	 ?OnCommandHelp@CAboutDlg@@QAEJIJ@Z @ 3779 NONAME
	 ?OnCommandHelp@CDockWnd@@IAEJIJ@Z @ 3780 NONAME
	 ?OnCommandHelp@COleAllPage@@IAEXIJ@Z @ 3781 NONAME
	 ?OnCommandHelp@CPaletteWnd@@IAEJIJ@Z @ 3782 NONAME
	 ?OnCommandHelp@CPartFrame@@IAEJIJ@Z @ 3783 NONAME
	 ?OnCommandHelp@CSheetWnd@@IAEJIJ@Z @ 3784 NONAME
	 ?OnCommandHelp@CTipDlg@@IAEJIJ@Z @ 3785 NONAME
	 ?OnCommandRemoved@CCustomDialog@@IAEJIJ@Z @ 3786 NONAME
	 ?OnCompCmdMsg@CIPCompContainerItem@@UAEHPAU_GUID@@KKHPAX@Z @ 3787 NONAME
	 ?OnCompCmdMsg@CIPCompFrameHook@@UAEHPAU_GUID@@KKHPAX@Z @ 3788 NONAME
	 ?OnComponentActivate@XMsoComponentHost@CIPCompHostApp@@UAGXPAUIMsoComponent@@PBU_MSOCRINFO@@H@Z @ 3789 NONAME
	 ?OnComponentEnterState@XMsoComponentHost@CIPCompHostApp@@UAGXKH@Z @ 3790 NONAME
	 ?OnContextMenu@C3dDialog@@UAEXPAVCWnd@@VCPoint@@@Z @ 3791 NONAME
	 ?OnContextMenu@C3dFileDialog@@UAEXPAVCWnd@@VCPoint@@@Z @ 3792 NONAME
	 ?OnContextMenu@CDlgTab@@MAEXPAVCWnd@@VCPoint@@@Z @ 3793 NONAME
	 ?OnContextMenu@CTabbedDialog@@MAEXPAVCWnd@@VCPoint@@@Z @ 3794 NONAME
	 ?OnControlNotify@CGridControlRow@@UAEXII@Z @ 3795 NONAME
	 ?OnControlNotify@CGridElement@@UAEXII@Z @ 3796 NONAME
	 ?OnCopy@CGridControlWnd@@IAEXXZ @ 3797 NONAME
	 ?OnCopy@CHelpKeyWnd@@QAEXXZ @ 3798 NONAME
	 ?OnCreate@CBMenuPopup@@IAEHPAUtagCREATESTRUCTA@@@Z @ 3799 NONAME
	 ?OnCreate@CCheckList@@IAEHPAUtagCREATESTRUCTA@@@Z @ 3800 NONAME
	 ?OnCreate@CGridControlWnd@@IAEHPAUtagCREATESTRUCTA@@@Z @ 3801 NONAME
	 ?OnCreate@CGridWnd@@IAEHPAUtagCREATESTRUCTA@@@Z @ 3802 NONAME
	 ?OnCreate@CHelpKeyWnd@@IAEHPAUtagCREATESTRUCTA@@@Z @ 3803 NONAME
	 ?OnCreate@CMainFrame@@IAEHPAUtagCREATESTRUCTA@@@Z @ 3804 NONAME
	 ?OnCreate@CMessageBox@@IAEHPAUtagCREATESTRUCTA@@@Z @ 3805 NONAME
	 ?OnCreate@CPartFrame@@IAEHPAUtagCREATESTRUCTA@@@Z @ 3806 NONAME
	 ?OnCreate@CSheetWnd@@IAEHPAUtagCREATESTRUCTA@@@Z @ 3807 NONAME
	 ?OnCreate@CStringListEdit@@IAEHPAUtagCREATESTRUCTA@@@Z @ 3808 NONAME
	 ?OnCreate@CStringListGridWnd@@QAEHPAUtagCREATESTRUCTA@@@Z @ 3809 NONAME
	 ?OnCreate@CSushiBar@@QAEHPAUtagCREATESTRUCTA@@@Z @ 3810 NONAME
	 ?OnCreate@CTabbedDialog@@IAEHPAUtagCREATESTRUCTA@@@Z @ 3811 NONAME
	 ?OnCreate@CTreeCtl@@IAEHPAUtagCREATESTRUCTA@@@Z @ 3812 NONAME
	 ?OnCreate@CWidgetScrollBar@@IAEHPAUtagCREATESTRUCTA@@@Z @ 3813 NONAME
	 ?OnCreateClient@CFloatingFrameWnd@@UAEHPAUtagCREATESTRUCTA@@PAUCCreateContext@@@Z @ 3814 NONAME
	 ?OnCreateClient@CHelpKeyWnd@@UAEHPAUtagCREATESTRUCTA@@PAUCCreateContext@@@Z @ 3815 NONAME
	 ?OnCreateClient@CMainFrame@@MAEHPAUtagCREATESTRUCTA@@PAUCCreateContext@@@Z @ 3816 NONAME
	 ?OnCreateObject@CApplicationFactory@@UAEPAVCCmdTarget@@XZ @ 3817 NONAME
	 ?OnCtlColor@C3dFontDialog@@QAEPAUHBRUSH__@@PAVCDC@@PAVCWnd@@I@Z @ 3818 NONAME
	 ?OnCtlColor@CGridControlWnd@@IAEPAUHBRUSH__@@PAVCDC@@PAVCWnd@@I@Z @ 3819 NONAME
	 ?OnCustomize@CVshellPackage@@IAEXXZ @ 3820 NONAME
	 ?OnCut@CGridControlWnd@@IAEXXZ @ 3821 NONAME
	 ?OnDblclk@CPropListBox@@IAEXXZ @ 3822 NONAME
	 ?OnDblclkSeltree@CBldWizSelectDlg@@IAEXPAUtagNMHDR@@PAJ@Z @ 3823 NONAME
	 ?OnDblClkType@CNewFileDialogTab@@IAEXPAUtagNMHDR@@PAJ@Z @ 3824 NONAME
	 ?OnDblClkType@CNewOtherDocDialogTab@@IAEXPAUtagNMHDR@@PAJ@Z @ 3825 NONAME
	 ?OnDblClkType@CNewProjectDialogTab@@IAEXPAUtagNMHDR@@PAJ@Z @ 3826 NONAME
	 ?OnDblClkType@CNewTemplateDialogTab@@IAEXPAUtagNMHDR@@PAJ@Z @ 3827 NONAME
	 ?OnDblClkType@CNewWorkspaceDialogTab@@IAEXPAUtagNMHDR@@PAJ@Z @ 3828 NONAME
	 ?OnDDECommand@CTheApp@@UAEHPAD@Z @ 3829 NONAME
	 ?OnDeactivate@C3dPropertyPage@@UAEXXZ @ 3830 NONAME
	 ?OnDeactivate@CIPCompContainerItem@@UAEXXZ @ 3831 NONAME
	 ?OnDeleteItemSeltree@CBldWizSelectDlg@@IAEXPAUtagNMHDR@@PAJ@Z @ 3832 NONAME
	 ?OnDeleteSelection@CCustomBar@@UAEXXZ @ 3833 NONAME
	 ?OnDeleteSelection@CCustomBarProxy@@UAEXXZ @ 3834 NONAME
	 ?OnDeleteSelection@CMenuPopupProxy@@UAEXXZ @ 3835 NONAME
	 ?OnDeleteString@CStringListGridWnd@@MAEHH@Z @ 3836 NONAME
	 ?OnDeleteString@CToolsGrid@@MAEHH@Z @ 3837 NONAME
	 ?OnDelTool@CCustomizeToolsDialog@@QAEHH@Z @ 3838 NONAME
	 ?OnDestroy@CBMenuPopup@@IAEXXZ @ 3839 NONAME
	 ?OnDestroy@CCustomBar@@IAEXXZ @ 3840 NONAME
	 ?OnDestroy@CCustomButtonDlg@@IAEXXZ @ 3841 NONAME
	 ?OnDestroy@CGridControlWnd@@IAEXXZ @ 3842 NONAME
	 ?OnDestroy@CPartFrame@@IAEXXZ @ 3843 NONAME
	 ?OnDestroy@CProjTypeIconList@@IAEXXZ @ 3844 NONAME
	 ?OnDestroy@CPropListBox@@IAEXXZ @ 3845 NONAME
	 ?OnDestroy@CSlobWnd@@QAEXXZ @ 3846 NONAME
	 ?OnDestroy@CTipDlg@@IAEXXZ @ 3847 NONAME
	 ?OnDestroy@CTreeCtl@@IAEXXZ @ 3848 NONAME
	 ?OnDestroySelf@CUndoList@@IAEJIJ@Z @ 3849 NONAME
	 ?OnDirChange@CMainFrame@@QAEXXZ @ 3850 NONAME
	 ?OnDirChange@CTheApp@@QAEXXZ @ 3851 NONAME
	 ?OnDkNcLButtonDown@CASBar@@IAEJIJ@Z @ 3852 NONAME
	 ?OnDocActivate@CDocObjectFrameHook@@UAEHH@Z @ 3853 NONAME
	 ?OnDocActivate@CIPCompDoc@@UAEXH@Z @ 3854 NONAME
	 ?OnDocActivate@CIPCompFrameHook@@UAEHH@Z @ 3855 NONAME
	 ?OnDockWindowShow@CMainFrame@@IAEHI@Z @ 3856 NONAME
	 ?OnDocObjActivate@CPartFrame@@IAEXIJ@Z @ 3857 NONAME
	 ?OnDragCancel@CMainFrame@@IAEXXZ @ 3858 NONAME
	 ?OnDragCopy@CMainFrame@@IAEXXZ @ 3859 NONAME
	 ?OnDragMove@CMainFrame@@IAEXXZ @ 3860 NONAME
	 ?OnDraw@CBitmapWnd@@MAEXPAVCDC@@@Z @ 3861 NONAME
	 ?OnDraw@CDocObjectView@@UAEXPAVCDC@@@Z @ 3862 NONAME
	 ?OnDraw@CSlobWnd@@UAEXPAVCDC@@@Z @ 3863 NONAME
	 ?OnDraw@CSplashScreen@@MAEXPAVCDC@@@Z @ 3864 NONAME
	 ?OnDrawChicago@CDockWnd@@IAEXPAVCDC@@@Z @ 3865 NONAME
	 ?OnDrawClipboard@CCustomButtonDlg@@IAEXXZ @ 3866 NONAME
	 ?OnDrawItem@CTreeCtl@@IAEXHPAUtagDRAWITEMSTRUCT@@@Z @ 3867 NONAME
	 ?OnDrawNT@CDockWnd@@IAEXPAVCDC@@@Z @ 3868 NONAME
	 ?OnDropFiles@CMainFrame@@IAEXPAUHDROP__@@@Z @ 3869 NONAME
	 ?OnDropMenu@CASBar@@IAEJIJ@Z @ 3870 NONAME
	 ?OnEditChangeFindWhat@CFindStringDlg@@IAEXXZ @ 3871 NONAME
	 ?OnEditchangeGoToCombo@CGoToDialog@@IAEXXZ @ 3872 NONAME
	 ?OnEditFind@CPartView@@IAEXXZ @ 3873 NONAME
	 ?OnEditFindNext@CPartView@@IAEXXZ @ 3874 NONAME
	 ?OnEditFindPrev@CPartView@@IAEXXZ @ 3875 NONAME
	 ?OnEditHelp@CFindCombo@@UAEHXZ @ 3876 NONAME
	 ?OnEditKillFocus@CFindCombo@@UAEXXZ @ 3877 NONAME
	 ?OnEditRedo@CIPCompDoc@@IAEXXZ @ 3878 NONAME
	 ?OnEditSetFocus@CFindCombo@@UAEXXZ @ 3879 NONAME
	 ?OnEditUndo@CIPCompDoc@@IAEXXZ @ 3880 NONAME
	 ?OnEnable@CDropControl@@IAEXH@Z @ 3881 NONAME
	 ?OnEnable@CGridWnd@@IAEXH@Z @ 3882 NONAME
	 ?OnEnable@CMainFrame@@IAEXH@Z @ 3883 NONAME
	 ?OnEnable@CSheetWnd@@IAEXH@Z @ 3884 NONAME
	 ?OnEnable@CToolbarDialog@@IAEXH@Z @ 3885 NONAME
	 ?OnEnableChild@CBorderBar@@IAEJIJ@Z @ 3886 NONAME
	 ?OnEndSession@CMainFrame@@IAEXH@Z @ 3887 NONAME
	 ?OnEndTrackHeader@COleAllPage@@IAEXPAUtagNMHDR@@PAJ@Z @ 3888 NONAME
	 ?OnEnterSizeMove@CPartFrame@@IAEXIJ@Z @ 3889 NONAME
	 ?OnEnterState@CIPCompFrameHook@@QAEXKH@Z @ 3890 NONAME
	 ?OnEnterState@XMsoComponent@CIPCompMainFrame@@UAGXKH@Z @ 3891 NONAME
	 ?OnEraseBkgnd@CBMenuPopup@@IAEHPAVCDC@@@Z @ 3892 NONAME
	 ?OnEraseBkgnd@CFontColorDlg@@IAEHPAVCDC@@@Z @ 3893 NONAME
	 ?OnEraseBkgnd@CTipCtrl@@IAEHPAVCDC@@@Z @ 3894 NONAME
	 ?OnExit@CPackage@@UAEXXZ @ 3895 NONAME
	 ?OnExitSizeMove@CPartFrame@@IAEXIJ@Z @ 3896 NONAME
	 ?OnExpand@CTreeCtl@@QAEXXZ @ 3897 NONAME
	 ?OnExpandAll@CTreeCtl@@QAEXXZ @ 3898 NONAME
	 ?OnExpandBranch@CTreeCtl@@QAEXXZ @ 3899 NONAME
	 ?OnFastHelp@CMainFrame@@IAEXXZ @ 3900 NONAME
	 ?OnFileChange@CMainFrame@@IAEJIJ@Z @ 3901 NONAME
	 ?OnFileChange@CPartDoc@@UAEHHPAVFCItem@@@Z @ 3902 NONAME
	 ?OnFileClose@CDockablePartView@@IAEXXZ @ 3903 NONAME
	 ?OnFileListSelChange@C3dFileDialog@@QAEXXZ @ 3904 NONAME
	 ?OnFileNameOK@C3dFileDialog@@UAEHXZ @ 3905 NONAME
	 ?OnFileNameOK@CAddFilesDialog@@MAEHXZ @ 3906 NONAME
	 ?OnFileNameOK@CIdisFileDialog@@UAEHXZ @ 3907 NONAME
	 ?OnFileNew@CTheApp@@QAEXXZ @ 3908 NONAME
	 ?OnFileNew@CVshellPackage@@IAEXXZ @ 3909 NONAME
	 ?OnFileNewInProject@CTheApp@@QAEXXZ @ 3910 NONAME
	 ?OnFileNewInProject@CVshellPackage@@IAEXXZ @ 3911 NONAME
	 ?OnFileNewProject@CTheApp@@QAEXH@Z @ 3912 NONAME
	 ?OnFileOpen@CTheApp@@QAEXXZ @ 3913 NONAME
	 ?OnFileOpen@CVshellPackage@@IAEXXZ @ 3914 NONAME
	 ?OnFilePrint@CDocObjectView@@IAEXXZ @ 3915 NONAME
	 ?OnFileSave@CPartDoc@@IAEXXZ @ 3916 NONAME
	 ?OnFileSaveAll@CVshellPackage@@IAEXXZ @ 3917 NONAME
	 ?OnFileSaveAllExit@CVshellPackage@@IAEXXZ @ 3918 NONAME
	 ?OnFileSaveAs@CPartDoc@@IAEXXZ @ 3919 NONAME
	 ?OnFinalRelease@CApplication@@UAEXXZ @ 3920 NONAME
	 ?OnFinalRelease@CAutoCollection@@UAEXXZ @ 3921 NONAME
	 ?OnFinalRelease@CAutoDocumentDefault@@UAEXXZ @ 3922 NONAME
	 ?OnFinalRelease@CAutoDocuments@@UAEXXZ @ 3923 NONAME
	 ?OnFinalRelease@CAutoProjects@@UAEXXZ @ 3924 NONAME
	 ?OnFinalRelease@CAutoWindowDefault@@UAEXXZ @ 3925 NONAME
	 ?OnFinalRelease@CAutoWindows@@UAEXXZ @ 3926 NONAME
	 ?OnFinalRelease@CEnumVariantObjs@@UAEXXZ @ 3927 NONAME
	 ?OnFindNext@CPartView@@UAEXPAH@Z @ 3928 NONAME
	 ?OnFontChange@CMainFrame@@IAEXXZ @ 3929 NONAME
	 ?OnFontChange@CPackage@@UAEXXZ @ 3930 NONAME
	 ?OnFormatChanged@CPackage@@UAEXXZ @ 3931 NONAME
	 ?OnFrameActivate@CIPCompFrameHook@@QAEXH@Z @ 3932 NONAME
	 ?OnGetData@CASBar@@IAEJIJ@Z @ 3933 NONAME
	 ?OnGetDlgCode@CDropControl@@IAEIXZ @ 3934 NONAME
	 ?OnGetDlgCode@CPropEdit@@IAEIXZ @ 3935 NONAME
	 ?OnGetDlgCode@CPropListBox@@IAEIXZ @ 3936 NONAME
	 ?OnGetDlgCode@CStringListEdit@@IAEIXZ @ 3937 NONAME
	 ?OnGetDlgCode@CStringListGridWnd@@QAEIXZ @ 3938 NONAME
	 ?OnGetDlgCode@CTap@@IAEIXZ @ 3939 NONAME
	 ?OnGetErrorCount@CMainFrame@@IAEJIJ@Z @ 3940 NONAME
	 ?OnGetFont@COldStatusBar@@IAEJIJ@Z @ 3941 NONAME
	 ?OnGetFont@CTreeCtl@@IAEJIJ@Z @ 3942 NONAME
	 ?OnGetItemPosition@CDocObjectContainerItem@@MAEXAAVCRect@@@Z @ 3943 NONAME
	 ?OnGetItemPosition@CIPCompContainerItem@@MAEXAAVCRect@@@Z @ 3944 NONAME
	 ?OnGetItemProp@CMainFrame@@IAEJIJ@Z @ 3945 NONAME
	 ?OnGetMinMaxInfo@CBorderBar@@IAEJIJ@Z @ 3946 NONAME
	 ?OnGetMinMaxInfo@CCustomBar@@IAEXPAUtagMINMAXINFO@@@Z @ 3947 NONAME
	 ?OnGetMinMaxInfo@CDocObjectFrame@@IAEXPAUtagMINMAXINFO@@@Z @ 3948 NONAME
	 ?OnGetMinMaxInfo@CMainFrame@@IAEXPAUtagMINMAXINFO@@@Z @ 3949 NONAME
	 ?OnGetMinMaxInfo@CPartFrame@@IAEXPAUtagMINMAXINFO@@@Z @ 3950 NONAME
	 ?OnGetMoveSize@CASBar@@IAEJIJ@Z @ 3951 NONAME
	 ?OnGetMoveSize@CBorderBar@@IAEJIJ@Z @ 3952 NONAME
	 ?OnGetProjPath@CMainFrame@@IAEJIJ@Z @ 3953 NONAME
	 ?OnGetProp@CMainFrame@@IAEJIJ@Z @ 3954 NONAME
	 ?OnGetRedoString@CIPCompView@@IAEJIJ@Z @ 3955 NONAME
	 ?OnGetRedoString@CSlobWnd@@QAEJIJ@Z @ 3956 NONAME
	 ?OnGetText@COldStatusBar@@IAEJIJ@Z @ 3957 NONAME
	 ?OnGetTextLength@COldStatusBar@@IAEJIJ@Z @ 3958 NONAME
	 ?OnGetTrackSize@CASBar@@IAEJIJ@Z @ 3959 NONAME
	 ?OnGetTrackSize@CBorderBar@@IAEJIJ@Z @ 3960 NONAME
	 ?OnGetUndoString@CIPCompView@@IAEJIJ@Z @ 3961 NONAME
	 ?OnGetUndoString@CSlobWnd@@QAEJIJ@Z @ 3962 NONAME
	 ?OnGetWarningCount@CMainFrame@@IAEJIJ@Z @ 3963 NONAME
	 ?OnGoTo@CGoToItem@@UAEXW4GOTO_TYPE@@PBDHK@Z @ 3964 NONAME
	 ?OnGotoGotoAndNext@CGoToDialog@@IAEXXZ @ 3965 NONAME
	 ?OnGridAccept@CCustomizeToolsDialog@@IAEXXZ @ 3966 NONAME
	 ?OnGridActivate@CCustomizeToolsDialog@@IAEXXZ @ 3967 NONAME
	 ?OnGridAddString@CCustomizeToolsDialog@@IAEXXZ @ 3968 NONAME
	 ?OnGridDelete@CGridControlWnd@@IAEXXZ @ 3969 NONAME
	 ?OnGridDelete@CStringListGridWnd@@IAEXXZ @ 3970 NONAME
	 ?OnGridDeleteString@CCustomizeToolsDialog@@IAEXXZ @ 3971 NONAME
	 ?OnGridKillFocus@CCustomizeToolsDialog@@IAEXXZ @ 3972 NONAME
	 ?OnGridMoveDown@CGridControlWnd@@IAEXXZ @ 3973 NONAME
	 ?OnGridMoveDown@CStringListGridWnd@@IAEXXZ @ 3974 NONAME
	 ?OnGridMoveUp@CGridControlWnd@@IAEXXZ @ 3975 NONAME
	 ?OnGridMoveUp@CStringListGridWnd@@IAEXXZ @ 3976 NONAME
	 ?OnGridNew@CGridControlWnd@@IAEXXZ @ 3977 NONAME
	 ?OnGridNew@CStringListGridWnd@@IAEXXZ @ 3978 NONAME
	 ?OnGridNew@CToolsGrid@@IAEXXZ @ 3979 NONAME
	 ?OnGridSelChange@CCustomizeToolsDialog@@IAEXXZ @ 3980 NONAME
	 ?OnGridSetFocus@CCustomizeToolsDialog@@IAEXXZ @ 3981 NONAME
	 ?OnGroupSelect@CHelpKeyWnd@@IAEXXZ @ 3982 NONAME
	 ?OnHeapUse@CMainFrame@@IAEJIJ@Z @ 3983 NONAME
	 ?OnHelp@CFloatingFrameWnd@@QAEXXZ @ 3984 NONAME
	 ?OnHelp@CHelpKeyWnd@@QAEXXZ @ 3985 NONAME
	 ?OnHelp@CIPCompView@@IAEXXZ @ 3986 NONAME
	 ?OnHelp@CTabbedDialog@@UAEXXZ @ 3987 NONAME
	 ?OnHelpContents@CMainFrame@@IAEXXZ @ 3988 NONAME
	 ?OnHelpExtHelp@CVshellPackage@@IAEXXZ @ 3989 NONAME
	 ?OnHelpInfo@C3dDialog@@UAEHPAUtagHELPINFO@@@Z @ 3990 NONAME
	 ?OnHelpInfo@C3dFileDialog@@UAEHPAUtagHELPINFO@@@Z @ 3991 NONAME
	 ?OnHelpInfo@CDlgTab@@MAEHPAUtagHELPINFO@@@Z @ 3992 NONAME
	 ?OnHelpInfo@CGoToDialog@@UAEHPAUtagHELPINFO@@@Z @ 3993 NONAME
	 ?OnHelpInfo@CTabbedDialog@@MAEHPAUtagHELPINFO@@@Z @ 3994 NONAME
	 ?OnHelpKeyboard@CMainFrame@@IAEXXZ @ 3995 NONAME
	 ?OnHelpKeywords@CMainFrame@@IAEXXZ @ 3996 NONAME
	 ?OnHelpMSOnTheWeb@CVshellPackage@@IAEXI@Z @ 3997 NONAME
	 ?OnHelpPSS@CVshellPackage@@IAEXXZ @ 3998 NONAME
	 ?OnHelpSearch@CMainFrame@@IAEXXZ @ 3999 NONAME
	 ?OnHelpTip@CVshellPackage@@IAEXXZ @ 4000 NONAME
	 ?OnHScroll@CWidgetScrollBar@@IAEXIIPAVCScrollBar@@@Z @ 4001 NONAME
	 ?OnIdle@CPackage@@UAEHJ@Z @ 4002 NONAME
	 ?OnIdle@CSushiBar@@QAEXXZ @ 4003 NONAME
	 ?OnIdle@CTheApp@@UAEHJ@Z @ 4004 NONAME
	 ?OnIdleUpdateCmdUI@CBMenuPopup@@IAEJIJ@Z @ 4005 NONAME
	 ?OnIdleUpdateCmdUI@CCustomBar@@IAEJIJ@Z @ 4006 NONAME
	 ?OnImageOnly@CCustomButtonDlg@@IAEXXZ @ 4007 NONAME
	 ?OnImagePaste@CCustomButtonDlg@@IAEXXZ @ 4008 NONAME
	 ?OnImageReset@CCustomButtonDlg@@IAEXXZ @ 4009 NONAME
	 ?OnImageText@CCustomButtonDlg@@IAEXXZ @ 4010 NONAME
	 ?OnInform@CAppSlob@@MAEXPAVCSlob@@IK@Z @ 4011 NONAME
	 ?OnInform@CMultiSlob@@UAEXPAVCSlob@@IK@Z @ 4012 NONAME
	 ?OnInform@CSheetSlob@@UAEXPAVCSlob@@IK@Z @ 4013 NONAME
	 ?OnInform@CSlob@@UAEXPAV1@IK@Z @ 4014 NONAME
	 ?OnInit@CPackage@@UAEHXZ @ 4015 NONAME
	 ?OnInit@CVshellPackage@@UAEHXZ @ 4016 NONAME
	 ?OnInitDialog@C3dFileDialog@@UAEHXZ @ 4017 NONAME
	 ?OnInitDialog@C3dFontDialog@@UAEHXZ @ 4018 NONAME
	 ?OnInitDialog@CAboutDlg@@UAEHXZ @ 4019 NONAME
	 ?OnInitDialog@CAddFilesDialog@@MAEHXZ @ 4020 NONAME
	 ?OnInitDialog@CBldWizSelectDlg@@MAEHXZ @ 4021 NONAME
	 ?OnInitDialog@CCustomButtonDlg@@MAEHXZ @ 4022 NONAME
	 ?OnInitDialog@CCustomDialog@@MAEHXZ @ 4023 NONAME
	 ?OnInitDialog@CCustomizeToolsDialog@@MAEHXZ @ 4024 NONAME
	 ?OnInitDialog@CDialogArg@@MAEHXZ @ 4025 NONAME
	 ?OnInitDialog@CFindStringDlg@@MAEHXZ @ 4026 NONAME
	 ?OnInitDialog@CFloatingFrameBar@@UAEHXZ @ 4027 NONAME
	 ?OnInitDialog@CFontColorDlg@@MAEHXZ @ 4028 NONAME
	 ?OnInitDialog@CGoToDialog@@MAEHXZ @ 4029 NONAME
	 ?OnInitDialog@CIdisFileDialog@@UAEHXZ @ 4030 NONAME
	 ?OnInitDialog@CKeyCustDlg@@MAEHXZ @ 4031 NONAME
	 ?OnInitDialog@CMessageBox@@MAEHXZ @ 4032 NONAME
	 ?OnInitDialog@CNewFileDialogTab@@MAEHXZ @ 4033 NONAME
	 ?OnInitDialog@CNewOtherDocDialogTab@@MAEHXZ @ 4034 NONAME
	 ?OnInitDialog@CNewProjectDialogTab@@MAEHXZ @ 4035 NONAME
	 ?OnInitDialog@CNewTemplateDialogTab@@MAEHXZ @ 4036 NONAME
	 ?OnInitDialog@CNewWorkspaceDialogTab@@MAEHXZ @ 4037 NONAME
	 ?OnInitDialog@COleAllPage@@MAEHXZ @ 4038 NONAME
	 ?OnInitDialog@COpenDocsDlg@@MAEHXZ @ 4039 NONAME
	 ?OnInitDialog@CTipDlg@@MAEHXZ @ 4040 NONAME
	 ?OnInitDialog@CToolbarDialog@@MAEHXZ @ 4041 NONAME
	 ?OnInitDialog@CWorkspaceDlg@@MAEHXZ @ 4042 NONAME
	 ?OnInitialUpdate@CDocObjectView@@MAEXXZ @ 4043 NONAME
	 ?OnInitialUpdate@CIPCompView@@UAEXXZ @ 4044 NONAME
	 ?OnInitMenu@CMainFrame@@IAEXPAVCMenu@@@Z @ 4045 NONAME
	 ?OnInitMenuPopup@CMainFrame@@IAEXPAVCMenu@@IH@Z @ 4046 NONAME
	 ?OnInPlaceActivate@XMyOleIPSite@CIPCompContainerItem@@UAGJXZ @ 4047 NONAME
	 ?OnInPlaceActivate@XOleInPlaceSite@CDocObjectContainerItem@@UAGJXZ @ 4048 NONAME
	 ?OnInPlaceDeactivate@XMyOleIPSite@CIPCompContainerItem@@UAGJXZ @ 4049 NONAME
	 ?OnInPlaceDeactivate@XOleInPlaceSite@CDocObjectContainerItem@@UAGJXZ @ 4050 NONAME
	 ?OnInsertFiles@CTheApp@@QAEXXZ @ 4051 NONAME
	 ?OnInsertFiles@CVshellPackage@@IAEXXZ @ 4052 NONAME
	 ?OnInsertMenus@CDocObjectContainerItem@@UAEXPAVCMenu@@PAUtagOleMenuGroupWidths@@@Z @ 4053 NONAME
	 ?OnInsertObject@CDocObjectView@@IAEXXZ @ 4054 NONAME
	 ?OnInternalSelectChange@CInternalTrackSelection@@IAEJK@Z @ 4055 NONAME
	 ?OnInternalSelectChange@CIPCompSlob@@QAEXPAUIUnknown@@@Z @ 4056 NONAME
	 ?OnInternalSelectChange@XInternalTrackSelection@CInternalTrackSelection@@UAGJK@Z @ 4057 NONAME
	 ?OnIPCComboEnter@CIPCompDoc@@IAEXPAVCComboBox@@PAU_GUID@@KK@Z @ 4058 NONAME
	 ?OnIPCComboEnter@CIPCompFrameHook@@QAEXPAVCComboBox@@PAU_GUID@@KK@Z @ 4059 NONAME
	 ?OnIPCComboSelect@CIPCompDoc@@IAEXPAVCComboBox@@PAU_GUID@@KK@Z @ 4060 NONAME
	 ?OnIPCComboSelect@CIPCompFrameHook@@QAEXPAVCComboBox@@PAU_GUID@@KK@Z @ 4061 NONAME
	 ?OnIsBuildPossible@CMainFrame@@IAEJIJ@Z @ 4062 NONAME
	 ?OnIsError@CSheetWnd@@IAEJIJ@Z @ 4063 NONAME
	 ?OnKeyDown@CASBar@@IAEXIII@Z @ 4064 NONAME
	 ?OnKeyDown@CBMenuPopup@@IAEXIII@Z @ 4065 NONAME
	 ?OnKeyDown@CCheckList@@IAEXIII@Z @ 4066 NONAME
	 ?OnKeyDown@CDockWnd@@IAEXIII@Z @ 4067 NONAME
	 ?OnKeyDown@CGridWnd@@IAEXIII@Z @ 4068 NONAME
	 ?OnKeyDown@CPaletteWnd@@IAEXIII@Z @ 4069 NONAME
	 ?OnKeyDown@CPropEdit@@IAEXIII@Z @ 4070 NONAME
	 ?OnKeyDown@CPropListBox@@IAEXIII@Z @ 4071 NONAME
	 ?OnKeyDown@CStringListEdit@@IAEXIII@Z @ 4072 NONAME
	 ?OnKeyDown@CTabbedDialog@@IAEXIII@Z @ 4073 NONAME
	 ?OnKeyDown@CTap@@IAEXIII@Z @ 4074 NONAME
	 ?OnKeyDown@CTreeCtl@@UAEHI@Z @ 4075 NONAME
	 ?OnKeyDown@CTreeListBox@@IAEXIII@Z @ 4076 NONAME
	 ?OnKeyUp@CBMenuPopup@@IAEXIII@Z @ 4077 NONAME
	 ?OnKeyUp@CGridControlWnd@@IAEXIII@Z @ 4078 NONAME
	 ?OnKeyUp@CTap@@IAEXIII@Z @ 4079 NONAME
	 ?OnKillFocus@CASBar@@IAEXPAVCWnd@@@Z @ 4080 NONAME
	 ?OnKillFocus@CBMenuPopup@@IAEXPAVCWnd@@@Z @ 4081 NONAME
	 ?OnKillFocus@CButtonEdit@@IAEXPAVCWnd@@@Z @ 4082 NONAME
	 ?OnKillFocus@CCustomBar@@IAEXPAVCWnd@@@Z @ 4083 NONAME
	 ?OnKillFocus@CDropControl@@IAEXPAVCWnd@@@Z @ 4084 NONAME
	 ?OnKillFocus@CGridWnd@@IAEXPAVCWnd@@@Z @ 4085 NONAME
	 ?OnKillFocus@CPropEdit@@IAEXPAVCWnd@@@Z @ 4086 NONAME
	 ?OnKillFocus@CSheetWnd@@IAEXPAVCWnd@@@Z @ 4087 NONAME
	 ?OnKillFocus@CTabbedDialog@@IAEXPAVCWnd@@@Z @ 4088 NONAME
	 ?OnKillFocus@CTap@@IAEXPAVCWnd@@@Z @ 4089 NONAME
	 ?OnKillFocusSize@CFontColorDlg@@IAEXXZ @ 4090 NONAME
	 ?OnLbDblClk@CTreeCtl@@IAEXXZ @ 4091 NONAME
	 ?OnLbSelChange@CTreeCtl@@IAEXXZ @ 4092 NONAME
	 ?OnLButtonDblClk@C3dBitmapButton@@IAEXIVCPoint@@@Z @ 4093 NONAME
	 ?OnLButtonDblClk@CAboutDlg@@QAEXIVCPoint@@@Z @ 4094 NONAME
	 ?OnLButtonDblClk@CASBar@@IAEXIVCPoint@@@Z @ 4095 NONAME
	 ?OnLButtonDblClk@CCheckList@@IAEXIVCPoint@@@Z @ 4096 NONAME
	 ?OnLButtonDblClk@CCustomBar@@IAEXIVCPoint@@@Z @ 4097 NONAME
	 ?OnLButtonDblClk@CDockWnd@@IAEXIVCPoint@@@Z @ 4098 NONAME
	 ?OnLButtonDblClk@CGridCaptionCell@@UAEHIVCPoint@@@Z @ 4099 NONAME
	 ?OnLButtonDblClk@CGridElement@@UAEHIVCPoint@@@Z @ 4100 NONAME
	 ?OnLButtonDblClk@CGridWnd@@IAEXIVCPoint@@@Z @ 4101 NONAME
	 ?OnLButtonDblClk@CMainFrame@@IAEXIVCPoint@@@Z @ 4102 NONAME
	 ?OnLButtonDblClk@CPropEdit@@IAEXIVCPoint@@@Z @ 4103 NONAME
	 ?OnLButtonDblClk@CTreeListBox@@IAEXIVCPoint@@@Z @ 4104 NONAME
	 ?OnLButtonDblClk@CWnd@@IAEXIVCPoint@@@Z @ 4105 NONAME
	 ?OnLButtonDown@CAboutDlg@@QAEXIVCPoint@@@Z @ 4106 NONAME
	 ?OnLButtonDown@CASBar@@IAEXIVCPoint@@@Z @ 4107 NONAME
	 ?OnLButtonDown@CBMenuPopup@@IAEXIVCPoint@@@Z @ 4108 NONAME
	 ?OnLButtonDown@CBorderBar@@IAEXIVCPoint@@@Z @ 4109 NONAME
	 ?OnLButtonDown@CButtonDragListBox@@IAEXIVCPoint@@@Z @ 4110 NONAME
	 ?OnLButtonDown@CCheckList@@IAEXIVCPoint@@@Z @ 4111 NONAME
	 ?OnLButtonDown@CCustomBar@@IAEXIVCPoint@@@Z @ 4112 NONAME
	 ?OnLButtonDown@CDockWnd@@IAEXIVCPoint@@@Z @ 4113 NONAME
	 ?OnLButtonDown@CDropControl@@IAEXIVCPoint@@@Z @ 4114 NONAME
	 ?OnLButtonDown@CGhostListBox@@IAEXIVCPoint@@@Z @ 4115 NONAME
	 ?OnLButtonDown@CGridCaptionCell@@UAEHIVCPoint@@@Z @ 4116 NONAME
	 ?OnLButtonDown@CGridControlWnd@@IAEXIVCPoint@@@Z @ 4117 NONAME
	 ?OnLButtonDown@CGridElement@@UAEHIVCPoint@@@Z @ 4118 NONAME
	 ?OnLButtonDown@CGridWnd@@IAEXIVCPoint@@@Z @ 4119 NONAME
	 ?OnLButtonDown@CMainFrame@@IAEXIVCPoint@@@Z @ 4120 NONAME
	 ?OnLButtonDown@COldToolBar@@IAEXIVCPoint@@@Z @ 4121 NONAME
	 ?OnLButtonDown@CSheetWnd@@IAEXIVCPoint@@@Z @ 4122 NONAME
	 ?OnLButtonDown@CTabbedDialog@@IAEXIVCPoint@@@Z @ 4123 NONAME
	 ?OnLButtonDown@CTap@@IAEXIVCPoint@@@Z @ 4124 NONAME
	 ?OnLButtonDown@CTreeListBox@@IAEXIVCPoint@@@Z @ 4125 NONAME
	 ?OnLButtonDown@CUndoList@@IAEXIVCPoint@@@Z @ 4126 NONAME
	 ?OnLButtonDown@CWidgetScrollBar@@IAEXIVCPoint@@@Z @ 4127 NONAME
	 ?OnLButtonUp@C3dBitmapButton@@IAEXIVCPoint@@@Z @ 4128 NONAME
	 ?OnLButtonUp@CAboutDlg@@QAEXIVCPoint@@@Z @ 4129 NONAME
	 ?OnLButtonUp@CBMenuPopup@@IAEXIVCPoint@@@Z @ 4130 NONAME
	 ?OnLButtonUp@CBorderBar@@IAEXIVCPoint@@@Z @ 4131 NONAME
	 ?OnLButtonUp@CCustomBar@@IAEXIVCPoint@@@Z @ 4132 NONAME
	 ?OnLButtonUp@CDragNDrop@@UAEXIVCPoint@@@Z @ 4133 NONAME
	 ?OnLButtonUp@CDropControl@@IAEXIVCPoint@@@Z @ 4134 NONAME
	 ?OnLButtonUp@CGhostListBox@@IAEXIVCPoint@@@Z @ 4135 NONAME
	 ?OnLButtonUp@CGridCaptionCell@@UAEHIVCPoint@@@Z @ 4136 NONAME
	 ?OnLButtonUp@CGridElement@@UAEHIVCPoint@@@Z @ 4137 NONAME
	 ?OnLButtonUp@CGridWnd@@IAEXIVCPoint@@@Z @ 4138 NONAME
	 ?OnLButtonUp@CMainFrame@@IAEXIVCPoint@@@Z @ 4139 NONAME
	 ?OnLButtonUp@CMenuBtn@@IAEXIVCPoint@@@Z @ 4140 NONAME
	 ?OnLButtonUp@COldToolBar@@IAEXIVCPoint@@@Z @ 4141 NONAME
	 ?OnLButtonUp@CSheetWnd@@IAEXIVCPoint@@@Z @ 4142 NONAME
	 ?OnLButtonUp@CTabbedDialog@@IAEXIVCPoint@@@Z @ 4143 NONAME
	 ?OnLButtonUp@CTabRow@@QAEXVCPoint@@@Z @ 4144 NONAME
	 ?OnLButtonUp@CToggleBitmapButton@@QAEXIVCPoint@@@Z @ 4145 NONAME
	 ?OnLButtonUp@CTreeListBox@@IAEXIVCPoint@@@Z @ 4146 NONAME
	 ?OnLButtonUp@CUndoList@@IAEXIVCPoint@@@Z @ 4147 NONAME
	 ?OnLButtonUp@CWidgetScrollBar@@IAEXIVCPoint@@@Z @ 4148 NONAME
	 ?OnListBoxLButtonDown@CDropControl@@QAEXIVCPoint@@@Z @ 4149 NONAME
	 ?OnListBoxLButtonUp@CDropControl@@QAEXIVCPoint@@@Z @ 4150 NONAME
	 ?OnLoadWorkspace@CPartFrame@@UAEXXZ @ 4151 NONAME
	 ?OnLoadWorkspace@CPartView@@UAEXXZ @ 4152 NONAME
	 ?OnLoseActivation@XMsoComponent@CIPCompMainFrame@@UAGXXZ @ 4153 NONAME
	 ?OnMacroItem@CCustomizeToolsDialog@@IAEXI@Z @ 4154 NONAME
	 ?OnMacroItem@CDialogArg@@IAEXI@Z @ 4155 NONAME
	 ?OnMDIActivate@CPartFrame@@IAEXHPAVCWnd@@0@Z @ 4156 NONAME
	 ?OnMDICycleForward@CPartFrame@@IAEXXZ @ 4157 NONAME
	 ?OnMeasureItem@CTreeCtl@@IAEXHPAUtagMEASUREITEMSTRUCT@@@Z @ 4158 NONAME
	 ?OnMenuChar@CTap@@IAEJIIPAVCMenu@@@Z @ 4159 NONAME
	 ?OnMenuCommand@CMainFrame@@IAEXI@Z @ 4160 NONAME
	 ?OnMenuSelect@CMainFrame@@IAEXIIPAUHMENU__@@@Z @ 4161 NONAME
	 ?OnMenuSelect@CPartFrame@@IAEXIIPAUHMENU__@@@Z @ 4162 NONAME
	 ?OnMessage@CDockWorker@@QAEJIJ@Z @ 4163 NONAME
	 ?OnMouseActivate@CASBar@@IAEHPAVCWnd@@II@Z @ 4164 NONAME
	 ?OnMouseActivate@CDockablePartView@@IAEHPAVCWnd@@II@Z @ 4165 NONAME
	 ?OnMouseActivate@CFloatingFrameWnd@@QAEHPAVCWnd@@II@Z @ 4166 NONAME
	 ?OnMouseActivate@CGhostListBox@@IAEHPAVCWnd@@II@Z @ 4167 NONAME
	 ?OnMouseActivate@CMainFrame@@IAEHPAVCWnd@@II@Z @ 4168 NONAME
	 ?OnMouseActivate@CPaletteWnd@@IAEHPAVCWnd@@II@Z @ 4169 NONAME
	 ?OnMouseActivate@CSheetWnd@@IAEHPAVCWnd@@II@Z @ 4170 NONAME
	 ?OnMouseMove@CAboutDlg@@QAEXIVCPoint@@@Z @ 4171 NONAME
	 ?OnMouseMove@CASBar@@IAEXIVCPoint@@@Z @ 4172 NONAME
	 ?OnMouseMove@CBMenuPopup@@IAEXIVCPoint@@@Z @ 4173 NONAME
	 ?OnMouseMove@CBorderBar@@IAEXIVCPoint@@@Z @ 4174 NONAME
	 ?OnMouseMove@CCustomBar@@IAEXIVCPoint@@@Z @ 4175 NONAME
	 ?OnMouseMove@CDockWnd@@IAEXIVCPoint@@@Z @ 4176 NONAME
	 ?OnMouseMove@CDragNDrop@@UAEXIVCPoint@@@Z @ 4177 NONAME
	 ?OnMouseMove@CDropControl@@IAEXIVCPoint@@@Z @ 4178 NONAME
	 ?OnMouseMove@CGridCaptionCell@@UAEHIVCPoint@@@Z @ 4179 NONAME
	 ?OnMouseMove@CGridElement@@UAEHIVCPoint@@@Z @ 4180 NONAME
	 ?OnMouseMove@CGridWnd@@IAEXIVCPoint@@@Z @ 4181 NONAME
	 ?OnMouseMove@CMainFrame@@IAEXIVCPoint@@@Z @ 4182 NONAME
	 ?OnMouseMove@COldToolBar@@IAEXIVCPoint@@@Z @ 4183 NONAME
	 ?OnMouseMove@CSheetWnd@@IAEXIVCPoint@@@Z @ 4184 NONAME
	 ?OnMouseMove@CTabbedDialog@@IAEXIVCPoint@@@Z @ 4185 NONAME
	 ?OnMouseMove@CTabRow@@QAEXVCPoint@@@Z @ 4186 NONAME
	 ?OnMouseMove@CTreeListBox@@IAEXIVCPoint@@@Z @ 4187 NONAME
	 ?OnMouseMove@CWidgetScrollBar@@IAEXIVCPoint@@@Z @ 4188 NONAME
	 ?OnMove@CGoToDialog@@IAEXHH@Z @ 4189 NONAME
	 ?OnMove@CMainFrame@@IAEXHH@Z @ 4190 NONAME
	 ?OnMove@CPartFrame@@IAEXHH@Z @ 4191 NONAME
	 ?OnMove@CStringListGridWnd@@MAEHHH@Z @ 4192 NONAME
	 ?OnMove@CToolsGrid@@MAEHHH@Z @ 4193 NONAME
	 ?OnMoveTool@CCustomizeToolsDialog@@QAEHHH@Z @ 4194 NONAME
	 ?OnMultiRemove@CUndoSlob@@QAEXPAVCMultiSlob@@PAVCSlob@@@Z @ 4195 NONAME
	 ?OnNameKillFocus@C3dFileDialog@@QAEXXZ @ 4196 NONAME
	 ?OnNcActivate@CMainFrame@@IAEHH@Z @ 4197 NONAME
	 ?OnNcActivate@CPaletteWnd@@IAEHH@Z @ 4198 NONAME
	 ?OnNcCalcSize@CDockWnd@@IAEXHPAUtagNCCALCSIZE_PARAMS@@@Z @ 4199 NONAME
	 ?OnNcCalcSize@CStaticVCenter@@QAEXHPAUtagNCCALCSIZE_PARAMS@@@Z @ 4200 NONAME
	 ?OnNcCreate@CTabbedDialog@@IAEHPAUtagCREATESTRUCTA@@@Z @ 4201 NONAME
	 ?OnNcHitTest@C3dDialogBar@@QAEIVCPoint@@@Z @ 4202 NONAME
	 ?OnNcHitTest@CASBar@@IAEIVCPoint@@@Z @ 4203 NONAME
	 ?OnNcHitTest@CBorderBar@@IAEIVCPoint@@@Z @ 4204 NONAME
	 ?OnNcHitTest@COldStatusBar@@IAEIVCPoint@@@Z @ 4205 NONAME
	 ?OnNcHitTest@CToolbarCombo@@IAEIVCPoint@@@Z @ 4206 NONAME
	 ?OnNcLButtonDblClk@CDockWorker@@QAEHIVCPoint@@@Z @ 4207 NONAME
	 ?OnNcLButtonDblClk@CMainFrame@@IAEXIVCPoint@@@Z @ 4208 NONAME
	 ?OnNcLButtonDblClk@CPaletteWnd@@IAEXIVCPoint@@@Z @ 4209 NONAME
	 ?OnNcLButtonDown@CDockWorker@@QAEHIVCPoint@@@Z @ 4210 NONAME
	 ?OnNcLButtonDown@CGridControlWnd@@IAEXIVCPoint@@@Z @ 4211 NONAME
	 ?OnNcLButtonDown@CMainFrame@@IAEXIVCPoint@@@Z @ 4212 NONAME
	 ?OnNcLButtonDown@CPaletteWnd@@IAEXIVCPoint@@@Z @ 4213 NONAME
	 ?OnNcLButtonDown@CPartFrame@@IAEXIVCPoint@@@Z @ 4214 NONAME
	 ?OnNcLButtonDown@CPropListBox@@IAEXIVCPoint@@@Z @ 4215 NONAME
	 ?OnNcLButtonDown@CSheetWnd@@IAEXIVCPoint@@@Z @ 4216 NONAME
	 ?OnNcPaint@CASBar@@IAEXXZ @ 4217 NONAME
	 ?OnNcPaint@CBorderBar@@IAEXXZ @ 4218 NONAME
	 ?OnNcPaint@CDockWnd@@IAEXXZ @ 4219 NONAME
	 ?OnNcPaint@CStaticVCenter@@QAEXXZ @ 4220 NONAME
	 ?OnNcRButtonUp@CPaletteWnd@@IAEXIVCPoint@@@Z @ 4221 NONAME
	 ?OnNewDocument@CPartDoc@@UAEHXZ @ 4222 NONAME
	 ?OnNewPalette@CPartFrame@@UAEXXZ @ 4223 NONAME
	 ?OnNewPalette@CPartView@@UAEXXZ @ 4224 NONAME
	 ?OnNewWindow@CMainFrame@@IAEXXZ @ 4225 NONAME
	 ?OnNextAdd@COleParentUndoUnit@@UAGJXZ @ 4226 NONAME
	 ?OnNextAdd@COleUndoUnit@@UAGJXZ @ 4227 NONAME
	 ?OnNotify@CPackage@@UAEHIPAX0@Z @ 4228 NONAME
	 ?OnOK@C3dFileDialog@@UAEXXZ @ 4229 NONAME
	 ?OnOK@CBldWizSelectDlg@@MAEXXZ @ 4230 NONAME
	 ?OnOK@CCustomButtonDlg@@MAEXXZ @ 4231 NONAME
	 ?OnOK@CDlgTab@@EAEXXZ @ 4232 NONAME
	 ?OnOK@CFileNewTabbedDialog@@UAEXXZ @ 4233 NONAME
	 ?OnOK@CNewBarDialog@@MAEXXZ @ 4234 NONAME
	 ?OnOK@CTabbedDialog@@UAEXXZ @ 4235 NONAME
	 ?OnOKPrevious@CGoToDialog@@AAEXW4GOTO_TYPE@@@Z @ 4236 NONAME
	 ?OnOpen@CTreeCtl@@UAEXH@Z @ 4237 NONAME
	 ?OnOpenDocument@CPartDoc@@UAEHPBD@Z @ 4238 NONAME
	 ?OnOpenDocumentsActivate@COpenDocsDlg@@IAEXXZ @ 4239 NONAME
	 ?OnOpenDocumentsCloseDoc@COpenDocsDlg@@IAEXXZ @ 4240 NONAME
	 ?OnOpenDocumentsSave@COpenDocsDlg@@IAEXXZ @ 4241 NONAME
	 ?OnOpenDocumentsTileHorz@COpenDocsDlg@@IAEXXZ @ 4242 NONAME
	 ?OnOpenDocumentsTileVert@COpenDocsDlg@@IAEXXZ @ 4243 NONAME
	 ?OnOpenRecentFile@CTheApp@@QAEHI@Z @ 4244 NONAME
	 ?OnOptions@CVshellPackage@@IAEXXZ @ 4245 NONAME
	 ?OnPageHelp@C3dPropertyPage@@UAEJIJ@Z @ 4246 NONAME
	 ?OnPageHelp@COleAllPage@@UAEJIJ@Z @ 4247 NONAME
	 ?OnPageHelp@COlePage@@UAEJIJ@Z @ 4248 NONAME
	 ?OnPageHelp@CSlobPage@@UAEJIJ@Z @ 4249 NONAME
	 ?OnPageSetup@CDocObjectView@@IAEXXZ @ 4250 NONAME
	 ?OnPaint@CAboutDlg@@QAEXXZ @ 4251 NONAME
	 ?OnPaint@CBitmapWnd@@IAEXXZ @ 4252 NONAME
	 ?OnPaint@CBMenuPopup@@IAEXXZ @ 4253 NONAME
	 ?OnPaint@CBorderBar@@IAEXXZ @ 4254 NONAME
	 ?OnPaint@CDockWnd@@IAEXXZ @ 4255 NONAME
	 ?OnPaint@CDropControl@@IAEXXZ @ 4256 NONAME
	 ?OnPaint@CFontColorDlg@@IAEXXZ @ 4257 NONAME
	 ?OnPaint@CGridWnd@@IAEXXZ @ 4258 NONAME
	 ?OnPaint@CSheetWnd@@IAEXXZ @ 4259 NONAME
	 ?OnPaint@CStaticVCenter@@QAEXXZ @ 4260 NONAME
	 ?OnPaint@CTabbedDialog@@IAEXXZ @ 4261 NONAME
	 ?OnPaint@CTap@@IAEXXZ @ 4262 NONAME
	 ?OnPaint@CTipCtrl@@IAEXXZ @ 4263 NONAME
	 ?OnPaint@CTipDlg@@IAEXXZ @ 4264 NONAME
	 ?OnPaint@CTreeCtl@@IAEXXZ @ 4265 NONAME
	 ?OnPaint@CUndoList@@IAEXXZ @ 4266 NONAME
	 ?OnPaint@CWidgetScrollBar@@IAEXXZ @ 4267 NONAME
	 ?OnPaletteChanged@CBitmapWnd@@IAEXPAVCWnd@@@Z @ 4268 NONAME
	 ?OnPaletteChanged@CMainFrame@@IAEXPAVCWnd@@@Z @ 4269 NONAME
	 ?OnPaletteChanged@CSheetWnd@@IAEXPAVCWnd@@@Z @ 4270 NONAME
	 ?OnParentNotify@CDockWnd@@IAEXIJ@Z @ 4271 NONAME
	 ?OnParentNotify@CMDIClientValidator@@IAEXIJ@Z @ 4272 NONAME
	 ?OnParentNotify@CPartFrame@@IAEXIJ@Z @ 4273 NONAME
	 ?OnParentNotify@CTabbedDialog@@IAEXIJ@Z @ 4274 NONAME
	 ?OnPaste@CGridControlWnd@@IAEXXZ @ 4275 NONAME
	 ?OnPathNameKillFocus@CCustomizeToolsDialog@@IAEXXZ @ 4276 NONAME
	 ?OnPauseRecord@XRecordNotifyShell@CVshellPackage@@UAGJXZ @ 4277 NONAME
	 ?OnPosRectChange@CIPCompDoc@@UAEJPAUtagRECT@@@Z @ 4278 NONAME
	 ?OnPosRectChange@XMyOleIPSite@CIPCompContainerItem@@UAGJPBUtagRECT@@@Z @ 4279 NONAME
	 ?OnPosRectChange@XOleInPlaceSite@CDocObjectContainerItem@@UAGJPBUtagRECT@@@Z @ 4280 NONAME
	 ?OnPostEnableIME@CMainFrame@@IAEJIJ@Z @ 4281 NONAME
	 ?OnPostSel@CUndoSlob@@QAEXPAVCMultiSlob@@@Z @ 4282 NONAME
	 ?OnPreExit@CPackage@@UAEXXZ @ 4283 NONAME
	 ?OnPreExit@CVshellPackage@@UAEXXZ @ 4284 NONAME
	 ?OnPreSel@CUndoSlob@@QAEXPAVCMultiSlob@@@Z @ 4285 NONAME
	 ?OnPreTranslateMessage@CIPCompFrameHook@@UAEHPAUtagMSG@@@Z @ 4286 NONAME
	 ?OnPrevious@CGoToDialog@@IAEXXZ @ 4287 NONAME
	 ?OnPrimary@CTreeCtl@@QAEXXZ @ 4288 NONAME
	 ?OnPrint@CHelpKeyWnd@@QAEXXZ @ 4289 NONAME
	 ?OnProjectChange@CNewFileDialogTab@@IAEXXZ @ 4290 NONAME
	 ?OnProjectChange@CNewOtherDocDialogTab@@IAEXXZ @ 4291 NONAME
	 ?OnProjectChange@CNewTemplateDialogTab@@IAEXXZ @ 4292 NONAME
	 ?OnPropChange@CSlobPage@@UAEHI@Z @ 4293 NONAME
	 ?OnPropChanged@CPropCheckList@@UAEXI@Z @ 4294 NONAME
	 ?OnPushPin@CFloatingFrameWnd@@QAEXXZ @ 4295 NONAME
	 ?OnQueryNewPalette@CBitmapWnd@@IAEHXZ @ 4296 NONAME
	 ?OnQueryNewPalette@CMainFrame@@IAEHXZ @ 4297 NONAME
	 ?OnQueryNewPalette@CSheetWnd@@IAEHXZ @ 4298 NONAME
	 ?OnRButtonDown@CASBar@@IAEXIVCPoint@@@Z @ 4299 NONAME
	 ?OnRButtonDown@CBMenuPopup@@IAEXIVCPoint@@@Z @ 4300 NONAME
	 ?OnRButtonDown@CCustomBar@@IAEXIVCPoint@@@Z @ 4301 NONAME
	 ?OnRButtonDown@CGridWnd@@IAEXIVCPoint@@@Z @ 4302 NONAME
	 ?OnRButtonDown@CMainFrame@@IAEXIVCPoint@@@Z @ 4303 NONAME
	 ?OnRButtonDown@CTreeListBox@@IAEXIVCPoint@@@Z @ 4304 NONAME
	 ?OnRButtonUp@CASBar@@IAEXIVCPoint@@@Z @ 4305 NONAME
	 ?OnRButtonUp@CBMenuPopup@@IAEXIVCPoint@@@Z @ 4306 NONAME
	 ?OnRButtonUp@CDockWnd@@IAEXIVCPoint@@@Z @ 4307 NONAME
	 ?OnRButtonUp@CDragNDrop@@UAEXIVCPoint@@@Z @ 4308 NONAME
	 ?OnRButtonUp@CGridWnd@@IAEXIVCPoint@@@Z @ 4309 NONAME
	 ?OnRButtonUp@CMainFrame@@IAEXIVCPoint@@@Z @ 4310 NONAME
	 ?OnRButtonUp@CMDIClientValidator@@IAEXIVCPoint@@@Z @ 4311 NONAME
	 ?OnRButtonUp@CPaletteWnd@@IAEXIVCPoint@@@Z @ 4312 NONAME
	 ?OnRButtonUp@CSlobWnd@@QAEXIVCPoint@@@Z @ 4313 NONAME
	 ?OnRButtonUp@CTreeListBox@@IAEXIVCPoint@@@Z @ 4314 NONAME
	 ?OnRedirect@CCustomizeToolsDialog@@IAEXXZ @ 4315 NONAME
	 ?OnRegMouseWheel@CMainFrame@@IAEJIJ@Z @ 4316 NONAME
	 ?OnRemoveIntProp@CUndoSlob@@QAEXPAVCSlob@@PAVCPropBag@@IH@Z @ 4317 NONAME
	 ?OnRequestEdit@COleAllPage@@IAEJJ@Z @ 4318 NONAME
	 ?OnRequestEdit@XPropertyNotifySink@COleAllPage@@UAGJJ@Z @ 4319 NONAME
	 ?OnResetCommandTarget@CIPCompView@@IAEJIJ@Z @ 4320 NONAME
	 ?OnRestoreDefaults@CFontColorDlg@@IAEXXZ @ 4321 NONAME
	 ?OnResumeRecord@XRecordNotifyShell@CVshellPackage@@UAGJXZ @ 4322 NONAME
	 ?OnRightButtonDown@CTreeCtl@@UAEXIVCPoint@@@Z @ 4323 NONAME
	 ?OnRightButtonUp@CTreeCtl@@UAEXIVCPoint@@@Z @ 4324 NONAME
	 ?OnRobustOK@C3dDialog@@QAEXXZ @ 4325 NONAME
	 ?OnRobustOK@C3dFileDialog@@QAEXXZ @ 4326 NONAME
	 ?OnRouteChildMessage@CBorderBar@@IAEJIJ@Z @ 4327 NONAME
	 ?OnRouteMessage@CDockWnd@@IAEJIJ@Z @ 4328 NONAME
	 ?OnRouteMessage@CPaletteWnd@@IAEJIJ@Z @ 4329 NONAME
	 ?OnSaveDocument@CPartDoc@@UAEHPBDI@Z @ 4330 NONAME
	 ?OnScc@C3dFileDialog@@QAEXXZ @ 4331 NONAME
	 ?OnSelChange@CCustomBar@@UAEXH@Z @ 4332 NONAME
	 ?OnSelChange@CCustomBarProxy@@UAEXH@Z @ 4333 NONAME
	 ?OnSelChange@CMenuPopupProxy@@UAEXH@Z @ 4334 NONAME
	 ?OnSelchange@CPropList@@IAEXXZ @ 4335 NONAME
	 ?OnSelchange@CPropListBox@@IAEXXZ @ 4336 NONAME
	 ?OnSelChange@CSlobWnd@@UAEXXZ @ 4337 NONAME
	 ?OnSelChangeCategories@CCustomDialog@@IAEXXZ @ 4338 NONAME
	 ?OnSelChangeCatList@CKeyCustDlg@@IAEXXZ @ 4339 NONAME
	 ?OnSelChangeCmdList@CKeyCustDlg@@IAEXXZ @ 4340 NONAME
	 ?OnSelChangeDocList@COpenDocsDlg@@IAEXXZ @ 4341 NONAME
	 ?OnSelchangedSeltree@CBldWizSelectDlg@@IAEXPAUtagNMHDR@@PAJ@Z @ 4342 NONAME
	 ?OnSelChangeFilter@CIdisFileDialog@@QAEXXZ @ 4343 NONAME
	 ?OnSelChangeFindWhat@CFindStringDlg@@IAEXXZ @ 4344 NONAME
	 ?OnSelchangeGoToCombo@CGoToDialog@@IAEXXZ @ 4345 NONAME
	 ?OnSelchangeGoToList@CGoToDialog@@IAEXXZ @ 4346 NONAME
	 ?OnSelchangeGoToWhat@CGoToDialog@@IAEXXZ @ 4347 NONAME
	 ?OnSelChangeKeyList@CKeyCustDlg@@IAEXXZ @ 4348 NONAME
	 ?OnSelChangeLevel@CSheetWnd@@IAEXXZ @ 4349 NONAME
	 ?OnSelChangeMenuFilter@CCustomDialog@@IAEXXZ @ 4350 NONAME
	 ?OnSelChangeScopeList@CKeyCustDlg@@IAEXXZ @ 4351 NONAME
	 ?OnSelChangeTextList@CCustomDialog@@IAEXXZ @ 4352 NONAME
	 ?OnSelChangeToolbar@CToolbarDialog@@IAEXXZ @ 4353 NONAME
	 ?OnSelect@CGridElement@@UAEXH@Z @ 4354 NONAME
	 ?OnSelect@CStringListGridRow@@UAEXH@Z @ 4355 NONAME
	 ?OnSelect@CTreeCtl@@UAEXH@Z @ 4356 NONAME
	 ?OnSelectChange@CGoToItem@@UAEXPBDHK@Z @ 4357 NONAME
	 ?OnSelectChange@XTrackSelection@COleTrackSelection@@UAGJPAUISelectionContainer@@@Z @ 4358 NONAME
	 ?OnSelectionContainerChange@CIPCompSlob@@UAEJPAUISelectionContainer@@@Z @ 4359 NONAME
	 ?OnSelectionContainerChange@COleTrackSelection@@IAEJPAUISelectionContainer@@@Z @ 4360 NONAME
	 ?OnSelectTab@CTabbedDialog@@UAEXH@Z @ 4361 NONAME
	 ?OnSelectType@CNewFileDialogTab@@IAEXPAUtagNMHDR@@PAJ@Z @ 4362 NONAME
	 ?OnSelectType@CNewOtherDocDialogTab@@IAEXPAUtagNMHDR@@PAJ@Z @ 4363 NONAME
	 ?OnSelectType@CNewProjectDialogTab@@IAEXPAUtagNMHDR@@PAJ@Z @ 4364 NONAME
	 ?OnSelectType@CNewTemplateDialogTab@@IAEXPAUtagNMHDR@@PAJ@Z @ 4365 NONAME
	 ?OnSelectType@CNewWorkspaceDialogTab@@IAEXPAUtagNMHDR@@PAJ@Z @ 4366 NONAME
	 ?OnSelectWhat@CGoToItem@@UAEXXZ @ 4367 NONAME
	 ?OnSelPage@CSheetWnd@@IAEXXZ @ 4368 NONAME
	 ?OnSetAppValidate@CMainFrame@@IAEJIJ@Z @ 4369 NONAME
	 ?OnSetCursor@CCustomBar@@IAEHPAVCWnd@@II@Z @ 4370 NONAME
	 ?OnSetCursor@CMainFrame@@IAEHPAVCWnd@@II@Z @ 4371 NONAME
	 ?OnSetDoubleProp@CUndoSlob@@QAEXPAVCSlob@@INPAVCPropBag@@@Z @ 4372 NONAME
	 ?OnSetFocus@CBMenuPopup@@IAEXPAVCWnd@@@Z @ 4373 NONAME
	 ?OnSetFocus@CBorderBar@@IAEXPAVCWnd@@@Z @ 4374 NONAME
	 ?OnSetFocus@CDocObjectView@@IAEXPAVCWnd@@@Z @ 4375 NONAME
	 ?OnSetFocus@CGridControlWnd@@IAEXPAVCWnd@@@Z @ 4376 NONAME
	 ?OnSetFocus@CGridWnd@@IAEXPAVCWnd@@@Z @ 4377 NONAME
	 ?OnSetFocus@CHelpKeyWnd@@IAEXPAVCWnd@@@Z @ 4378 NONAME
	 ?OnSetFocus@CMainFrame@@IAEXPAVCWnd@@@Z @ 4379 NONAME
	 ?OnSetFocus@CMenuBtn@@IAEXPAVCWnd@@@Z @ 4380 NONAME
	 ?OnSetFocus@CPartFrame@@IAEXPAVCWnd@@@Z @ 4381 NONAME
	 ?OnSetFocus@CPropListBox@@IAEXPAVCWnd@@@Z @ 4382 NONAME
	 ?OnSetFocus@CSheetWnd@@IAEXPAVCWnd@@@Z @ 4383 NONAME
	 ?OnSetFocus@CTabbedDialog@@IAEXPAVCWnd@@@Z @ 4384 NONAME
	 ?OnSetFocus@CTap@@IAEXPAVCWnd@@@Z @ 4385 NONAME
	 ?OnSetFocus@CTreeCtl@@IAEXPAVCWnd@@@Z @ 4386 NONAME
	 ?OnSetFont@CCheckList@@IAEJIJ@Z @ 4387 NONAME
	 ?OnSetFont@COldStatusBar@@IAEJIJ@Z @ 4388 NONAME
	 ?OnSetFont@CTreeCtl@@IAEJIJ@Z @ 4389 NONAME
	 ?OnSetIntProp@CUndoSlob@@QAEXPAVCSlob@@IIPAVCPropBag@@@Z @ 4390 NONAME
	 ?OnSetItemProp@CMainFrame@@IAEJIJ@Z @ 4391 NONAME
	 ?OnSetLongProp@CUndoSlob@@QAEXPAVCSlob@@IJPAVCPropBag@@@Z @ 4392 NONAME
	 ?OnSetMenu@CDocObjectContainerItem@@UAEXPAVCMenu@@PAXPAUHWND__@@@Z @ 4393 NONAME
	 ?OnSetMessageString@CDockWnd@@IAEJIJ@Z @ 4394 NONAME
	 ?OnSetMessageString@CPaletteWnd@@IAEJIJ@Z @ 4395 NONAME
	 ?OnSetMessageString@CSheetWnd@@IAEJIJ@Z @ 4396 NONAME
	 ?OnSetPointProp@CUndoSlob@@QAEXPAVCSlob@@IABVCPoint@@PAVCPropBag@@@Z @ 4397 NONAME
	 ?OnSetProp@CMainFrame@@IAEJIJ@Z @ 4398 NONAME
	 ?OnSetRectProp@CUndoSlob@@QAEXPAVCSlob@@IABVCRect@@PAVCPropBag@@@Z @ 4399 NONAME
	 ?OnSetSlobProp@CUndoSlob@@QAEXPAVCSlob@@IPBV2@PAVCPropBag@@@Z @ 4400 NONAME
	 ?OnSetStrProp@CUndoSlob@@QAEXPAVCSlob@@IPBVCString@@PAVCPropBag@@@Z @ 4401 NONAME
	 ?OnSetText@COldStatusBar@@IAEJIJ@Z @ 4402 NONAME
	 ?OnSetText@CSushiBar@@QAEJIJ@Z @ 4403 NONAME
	 ?OnShowControlBars@CDocObjectContainerItem@@UAEHPAVCFrameWnd@@H@Z @ 4404 NONAME
	 ?OnShowMenu@CMenuBtn@@IAEJIJ@Z @ 4405 NONAME
	 ?OnShowWindow@CGridWnd@@IAEXHI@Z @ 4406 NONAME
	 ?OnShowWindow@XMyOleClientSite@CIPCompContainerItem@@UAGJH@Z @ 4407 NONAME
	 ?OnSize@CBorderBar@@IAEXIHH@Z @ 4408 NONAME
	 ?OnSize@CCustomBar@@IAEXIHH@Z @ 4409 NONAME
	 ?OnSize@CDocObjectView@@IAEXIHH@Z @ 4410 NONAME
	 ?OnSize@CGridControlWnd@@IAEXIHH@Z @ 4411 NONAME
	 ?OnSize@CGridWnd@@IAEXIHH@Z @ 4412 NONAME
	 ?OnSize@CMainFrame@@IAEXIHH@Z @ 4413 NONAME
	 ?OnSize@CMDIClientValidator@@IAEXIHH@Z @ 4414 NONAME
	 ?OnSize@COldStatusBar@@IAEXIHH@Z @ 4415 NONAME
	 ?OnSize@CPaletteWnd@@IAEXIHH@Z @ 4416 NONAME
	 ?OnSize@CPartFrame@@IAEXIHH@Z @ 4417 NONAME
	 ?OnSize@CSheetWnd@@IAEXIHH@Z @ 4418 NONAME
	 ?OnSize@CTabbedDialog@@IAEXIHH@Z @ 4419 NONAME
	 ?OnSize@CTreeCtl@@IAEXIHH@Z @ 4420 NONAME
	 ?OnSize@CWidgetScrollBar@@IAEXIHH@Z @ 4421 NONAME
	 ?OnSizeChange@CDocObjectContainerItem@@UAEXXZ @ 4422 NONAME
	 ?OnSizeMessage@CBorderBar@@IAEJIW4DOCKPOS@@IJ@Z @ 4423 NONAME
	 ?OnSizeParent@CCustomBar@@IAEJIJ@Z @ 4424 NONAME
	 ?OnSizeParent@CDockWnd@@IAEJIJ@Z @ 4425 NONAME
	 ?OnSizeParent@COldStatusBar@@IAEJIJ@Z @ 4426 NONAME
	 ?OnSpecialItem@CFindStringDlg@@IAEXI@Z @ 4427 NONAME
	 ?OnStackChange@COleUndoManager@@IAEXXZ @ 4428 NONAME
	 ?OnStartRecord@XRecordNotifyShell@CVshellPackage@@UAGJXZ @ 4429 NONAME
	 ?OnStatusChange@XPropertyPageSite@COlePage@@UAGJK@Z @ 4430 NONAME
	 ?OnStopRecord@XRecordNotifyShell@CVshellPackage@@UAGJXZ @ 4431 NONAME
	 ?OnSysColorChange@C3dBitmapButton@@IAEXXZ @ 4432 NONAME
	 ?OnSysColorChange@CASBar@@IAEXXZ @ 4433 NONAME
	 ?OnSysColorChange@CFontColorDlg@@IAEXXZ @ 4434 NONAME
	 ?OnSysColorChange@CMainFrame@@IAEXXZ @ 4435 NONAME
	 ?OnSysColorChange@CMenuBtn@@IAEXXZ @ 4436 NONAME
	 ?OnSysColorChange@COldToolBar@@IAEXXZ @ 4437 NONAME
	 ?OnSysColorChange@CSushiBar@@QAEXXZ @ 4438 NONAME
	 ?OnSysColorChange@CWidgetScrollBar@@IAEXXZ @ 4439 NONAME
	 ?OnSysCommand@CASBar@@IAEXIJ@Z @ 4440 NONAME
	 ?OnSysCommand@CCustomDialog@@IAEXIJ@Z @ 4441 NONAME
	 ?OnSysCommand@CMainFrame@@IAEXIJ@Z @ 4442 NONAME
	 ?OnSysCommand@COldStatusBar@@IAEXIJ@Z @ 4443 NONAME
	 ?OnSysCommand@CPaletteWnd@@IAEXIJ@Z @ 4444 NONAME
	 ?OnSysCommand@CPartFrame@@IAEXIJ@Z @ 4445 NONAME
	 ?OnSysCommand@CPartView@@IAEXIJ@Z @ 4446 NONAME
	 ?OnSysCommand@CSheetWnd@@IAEXIJ@Z @ 4447 NONAME
	 ?OnSysCommand@CSlobPage@@IAEXIJ@Z @ 4448 NONAME
	 ?OnSysCommand@CTap@@IAEXIJ@Z @ 4449 NONAME
	 ?OnSysCommand@CToolbarDialog@@IAEXIJ@Z @ 4450 NONAME
	 ?OnSysCommand@CWnd@@IAEXIJ@Z @ 4451 NONAME
	 ?OnSysKeyDown@CASBar@@IAEXIII@Z @ 4452 NONAME
	 ?OnSysKeyDown@CBMenuPopup@@IAEXIII@Z @ 4453 NONAME
	 ?OnSysKeyDown@CGridWnd@@IAEXIII@Z @ 4454 NONAME
	 ?OnSysKeyDown@CTap@@IAEXIII@Z @ 4455 NONAME
	 ?OnSysKeyUp@CTap@@IAEXIII@Z @ 4456 NONAME
	 ?OnTestDockable@CMainFrame@@IAEJIJ@Z @ 4457 NONAME
	 ?OnTestMenu@C3dDialog@@QAEJIJ@Z @ 4458 NONAME
	 ?OnTestMenu@CBMenuPopup@@IAEJIJ@Z @ 4459 NONAME
	 ?OnTestMenu@CMainFrame@@IAEJIJ@Z @ 4460 NONAME
	 ?OnTextOnly@CCustomButtonDlg@@IAEXXZ @ 4461 NONAME
	 ?OnTimer@CAboutDlg@@QAEXI@Z @ 4462 NONAME
	 ?OnTimer@CBMenuPopup@@IAEXI@Z @ 4463 NONAME
	 ?OnTimer@CDropControl@@IAEXI@Z @ 4464 NONAME
	 ?OnTimer@CGridWnd@@IAEXI@Z @ 4465 NONAME
	 ?OnTimer@CMainFrame@@IAEXI@Z @ 4466 NONAME
	 ?OnTimer@CSheetWnd@@IAEXI@Z @ 4467 NONAME
	 ?OnTimer@CSushiBar@@QAEXI@Z @ 4468 NONAME
	 ?OnTimer@CTabbedDialog@@IAEXI@Z @ 4469 NONAME
	 ?OnTimer@CTabRow@@QAEXXZ @ 4470 NONAME
	 ?OnTimer@CWidgetScrollBar@@IAEXI@Z @ 4471 NONAME
	 ?OnTimer@CWnd@@IAEXI@Z @ 4472 NONAME
	 ?OnTipNext@CTipDlg@@IAEXXZ @ 4473 NONAME
	 ?OnToggleFindCase@CPartView@@IAEXXZ @ 4474 NONAME
	 ?OnToggleFindRE@CPartView@@IAEXXZ @ 4475 NONAME
	 ?OnToggleFindWord@CPartView@@IAEXXZ @ 4476 NONAME
	 ?OnToggleMDI@CVshellPackage@@IAEXXZ @ 4477 NONAME
	 ?OnToggleSearchAllDocs@CPartView@@IAEXXZ @ 4478 NONAME
	 ?OnToolbarCustomize@CVshellPackage@@IAEXXZ @ 4479 NONAME
	 ?OnToolbarOptions@CVshellPackage@@IAEXXZ @ 4480 NONAME
	 ?OnToolbarStatus@CPartFrame@@QAEXXZ @ 4481 NONAME
	 ?OnToolHitTest@CBorderBar@@MBEHVCPoint@@PAUtagTOOLINFOA@@@Z @ 4482 NONAME
	 ?OnToolHitTest@CCustomBar@@MBEHVCPoint@@PAUtagTOOLINFOA@@@Z @ 4483 NONAME
	 ?OnToolHitTest@COldToolBar@@MBEHVCPoint@@PAUtagTOOLINFOA@@@Z @ 4484 NONAME
	 ?OnToolHitTest@CPartFrame@@MBEHVCPoint@@PAUtagTOOLINFOA@@@Z @ 4485 NONAME
	 ?OnToolTipText@CBorderBar@@IAEHIPAUtagNMHDR@@PAJ@Z @ 4486 NONAME
	 ?OnToolTipText@CGridWnd@@IAEHIPAUtagNMHDR@@PAJ@Z @ 4487 NONAME
	 ?OnToolTipText@CMainFrame@@IAEHIPAUtagNMHDR@@PAJ@Z @ 4488 NONAME
	 ?OnToolTipText@CPartFrame@@IAEHIPAUtagNMHDR@@PAJ@Z @ 4489 NONAME
	 ?OnToolTipText@CSheetWnd@@IAEHIPAUtagNMHDR@@PAJ@Z @ 4490 NONAME
	 ?OnTrackHeader@COleAllPage@@IAEXPAUtagNMHDR@@PAJ@Z @ 4491 NONAME
	 ?OnTypeChange@CIdisFileDialog@@QAEXIPAUtagNMHDR@@PAJ@Z @ 4492 NONAME
	 ?OnUIActivate@XMyOleIPSite@CIPCompContainerItem@@UAGJXZ @ 4493 NONAME
	 ?OnUIActivate@XOleInPlaceSite@CDocObjectContainerItem@@UAGJXZ @ 4494 NONAME
	 ?OnUIComponentEnterState@XOleIPCompUIMgr@CIPCompFrameHook@@UAGXKKK@Z @ 4495 NONAME
	 ?OnUIDeactivate@XMyOleIPSite@CIPCompContainerItem@@UAGJH@Z @ 4496 NONAME
	 ?OnUIDeactivate@XOleInPlaceSite@CDocObjectContainerItem@@UAGJH@Z @ 4497 NONAME
	 ?OnUIEvent@XOleCompUIMgr@CIPCompFrameHook@@UAGXKABU_GUID@@PBU3@KKKPAUtagRECT@@PAUtagVARIANT@@@Z @ 4498 NONAME
	 ?OnUIEventProgress@XOleCompUIMgr@CIPCompFrameHook@@UAGJPAKHPAGKK@Z @ 4499 NONAME
	 ?OnUndo@CGridControlWnd@@IAEXXZ @ 4500 NONAME
	 ?OnUpdateButtonChooseAppearance@CToolCustomizer@@QAEXPAVCCmdUI@@@Z @ 4501 NONAME
	 ?OnUpdateButtonCopyImage@CToolCustomizer@@QAEXPAVCCmdUI@@@Z @ 4502 NONAME
	 ?OnUpdateButtonDelete@CToolCustomizer@@QAEXPAVCCmdUI@@@Z @ 4503 NONAME
	 ?OnUpdateButtonGroupStart@CToolCustomizer@@QAEXPAVCCmdUI@@@Z @ 4504 NONAME
	 ?OnUpdateButtonImageOnly@CToolCustomizer@@QAEXPAVCCmdUI@@@Z @ 4505 NONAME
	 ?OnUpdateButtonImageText@CToolCustomizer@@QAEXPAVCCmdUI@@@Z @ 4506 NONAME
	 ?OnUpdateButtonPasteImage@CToolCustomizer@@QAEXPAVCCmdUI@@@Z @ 4507 NONAME
	 ?OnUpdateButtonReset@CToolCustomizer@@QAEXPAVCCmdUI@@@Z @ 4508 NONAME
	 ?OnUpdateButtonResetImage@CToolCustomizer@@QAEXPAVCCmdUI@@@Z @ 4509 NONAME
	 ?OnUpdateButtonTextOnly@CToolCustomizer@@QAEXPAVCCmdUI@@@Z @ 4510 NONAME
	 ?OnUpdateClear@CGridControlWnd@@IAEXPAVCCmdUI@@@Z @ 4511 NONAME
	 ?OnUpdateCmdUI@CCustomBar@@MAEXPAVCFrameWnd@@H@Z @ 4512 NONAME
	 ?OnUpdateCmdUI@COldStatusBar@@MAEXPAVCFrameWnd@@H@Z @ 4513 NONAME
	 ?OnUpdateCmdUI@COldToolBar@@MAEXPAVCFrameWnd@@H@Z @ 4514 NONAME
	 ?OnUpdateCommandUI@CVshellPackage@@QAEXPAVCCmdUI@@@Z @ 4515 NONAME
	 ?OnUpdateCommandUI_MSOnTheWeb@CVshellPackage@@QAEXPAVCCmdUI@@@Z @ 4516 NONAME
	 ?OnUpdateCommandUI_Tools@CVshellPackage@@QAEXPAVCCmdUI@@@Z @ 4517 NONAME
	 ?OnUpdateCopy@CGridControlWnd@@IAEXPAVCCmdUI@@@Z @ 4518 NONAME
	 ?OnUpdateCustomMenuCommand@CMainFrame@@IAEXPAVCCmdUI@@@Z @ 4519 NONAME
	 ?OnUpdateCut@CGridControlWnd@@IAEXPAVCCmdUI@@@Z @ 4520 NONAME
	 ?OnUpdateEditRedo@CIPCompDoc@@IAEXPAVCCmdUI@@@Z @ 4521 NONAME
	 ?OnUpdateEditUndo@CIPCompDoc@@IAEXPAVCCmdUI@@@Z @ 4522 NONAME
	 ?OnUpdateFileClose@CDockablePartView@@IAEXPAVCCmdUI@@@Z @ 4523 NONAME
	 ?OnUpdateFindReplace@CPartView@@IAEXPAVCCmdUI@@@Z @ 4524 NONAME
	 ?OnUpdateFrameMenu@CPartFrame@@UAEXHPAVCWnd@@PAUHMENU__@@@Z @ 4525 NONAME
	 ?OnUpdateFrameTitle@CDocObjectFrame@@UAEXH@Z @ 4526 NONAME
	 ?OnUpdateFrameTitle@CMainFrame@@UAEXH@Z @ 4527 NONAME
	 ?OnUpdateFrameTitle@CPartFrame@@UAEXH@Z @ 4528 NONAME
	 ?OnUpdateFullScreen@CMainFrame@@IAEXPAVCCmdUI@@@Z @ 4529 NONAME
	 ?OnUpdateIndicator@CMainFrame@@IAEXPAVCCmdUI@@@Z @ 4530 NONAME
	 ?OnUpdateIndicator@CPartDoc@@IAEXPAVCCmdUI@@@Z @ 4531 NONAME
	 ?OnUpdateMenuCommand@CMainFrame@@IAEXPAVCCmdUI@@@Z @ 4532 NONAME
	 ?OnUpdateNewWindow@CMainFrame@@IAEXPAVCCmdUI@@@Z @ 4533 NONAME
	 ?OnUpdateObjectVerbMenu@CPartDoc@@IAEXPAVCCmdUI@@@Z @ 4534 NONAME
	 ?OnUpdatePaste@CGridControlWnd@@IAEXPAVCCmdUI@@@Z @ 4535 NONAME
	 ?OnUpdatePrint@CDocObjectView@@IAEXPAVCCmdUI@@@Z @ 4536 NONAME
	 ?OnUpdateRecentProjMenu@CTheApp@@QAEXPAVCCmdUI@@@Z @ 4537 NONAME
	 ?OnUpdateRedo@CGridControlWnd@@IAEXPAVCCmdUI@@@Z @ 4538 NONAME
	 ?OnUpdateToggleAllCmds@CHelpKeyWnd@@IAEXPAVCCmdUI@@@Z @ 4539 NONAME
	 ?OnUpdateToggleMatchCase@CPartView@@IAEXPAVCCmdUI@@@Z @ 4540 NONAME
	 ?OnUpdateToggleMatchRegEx@CPartView@@IAEXPAVCCmdUI@@@Z @ 4541 NONAME
	 ?OnUpdateToggleMatchWord@CPartView@@IAEXPAVCCmdUI@@@Z @ 4542 NONAME
	 ?OnUpdateToggleSearchAllDocs@CPartView@@IAEXPAVCCmdUI@@@Z @ 4543 NONAME
	 ?OnUpdateTRUE@CDocObjectView@@IAEXPAVCCmdUI@@@Z @ 4544 NONAME
	 ?OnUpdateUndo@CGridControlWnd@@IAEXPAVCCmdUI@@@Z @ 4545 NONAME
	 ?OnUpdateWindowCommand@CMainFrame@@IAEXPAVCCmdUI@@@Z @ 4546 NONAME
	 ?OnUpdateWindows@CMainFrame@@IAEXPAVCCmdUI@@@Z @ 4547 NONAME
	 ?OnValidateReq@CSheetWnd@@IAEJIJ@Z @ 4548 NONAME
	 ?OnVKeyToItem@CKeyCustDlg@@IAEHIPAVCListBox@@I@Z @ 4549 NONAME
	 ?OnVScroll@CCustomBar@@IAEXIIPAVCScrollBar@@@Z @ 4550 NONAME
	 ?OnVScroll@CGridControlWnd@@IAEXIIPAVCScrollBar@@@Z @ 4551 NONAME
	 ?OnVScroll@CGridWnd@@IAEXIIPAVCScrollBar@@@Z @ 4552 NONAME
	 ?OnVScroll@CWidgetScrollBar@@IAEXIIPAVCScrollBar@@@Z @ 4553 NONAME
	 ?OnWindowActivate@CDockWorker@@QAEXHPAVCWnd@@@Z @ 4554 NONAME
	 ?OnWindowClose@CMainFrame@@IAEXXZ @ 4555 NONAME
	 ?OnWindowCloseAll@CMainFrame@@IAEXXZ @ 4556 NONAME
	 ?OnWindowFullScreen@CMainFrame@@IAEXXZ @ 4557 NONAME
	 ?OnWindowHide@CVshellPackage@@IAEXXZ @ 4558 NONAME
	 ?OnWindowListDocs@CMainFrame@@IAEXXZ @ 4559 NONAME
	 ?OnWindowNext@CMainFrame@@IAEXXZ @ 4560 NONAME
	 ?OnWindowPosChanged@CDockWnd@@IAEXPAUtagWINDOWPOS@@@Z @ 4561 NONAME
	 ?OnWindowPosChanged@CIPCompDoc@@UAEXPAUtagWINDOWPOS@@@Z @ 4562 NONAME
	 ?OnWindowPosChanged@CIPCompView@@IAEXPAUtagWINDOWPOS@@@Z @ 4563 NONAME
	 ?OnWindowPrevious@CMainFrame@@IAEXXZ @ 4564 NONAME
	 ?OnWindows@CMainFrame@@IAEXI@Z @ 4565 NONAME
	 ?OnWinIniChange@CMainFrame@@IAEXPBD@Z @ 4566 NONAME
	 ?OnWinIniChange@COldStatusBar@@IAEXPBD@Z @ 4567 NONAME
	 ?OnWinIniChange@CWidgetScrollBar@@IAEXPBD@Z @ 4568 NONAME
	 ?OnWmHelp@CIPCompView@@IAEJIJ@Z @ 4569 NONAME
	 ?Open@CAutoDocuments@@IAEPAUIDispatch@@PBDABUtagVARIANT@@1@Z @ 4570 NONAME
	 ?Open@CImageWell@@QAEHXZ @ 4571 NONAME
	 ?Open@CInitFile@@QAEHPAUIStorage@@VCString@@I@Z @ 4572 NONAME
	 ?Open@CInitFile@@QAEHPAVMSF@@GI@Z @ 4573 NONAME
	 ?Open@CInitFile@@QAEHPBD0IW4INIT_DATATYPE@1@@Z @ 4574 NONAME
	 ?Open@COleParentUndoUnit@@UAGJPAUIOleParentUndoUnit@@@Z @ 4575 NONAME
	 ?Open@COLEStorage@@QAEXPBD@Z @ 4576 NONAME
	 ?Open@COleUndoManager@@UAGJPAUIOleParentUndoUnit@@@Z @ 4577 NONAME
	 ?Open@CRegKey@ATL@@QAEJPAUHKEY__@@PBDK@Z @ 4578 NONAME
	 ?Open@CRegLite@@QAEHPAUHKEY__@@PBD@Z @ 4579 NONAME
	 ?Open@XDocuments@CAutoDocuments@@EAGJPAGUtagVARIANT@@1PAPAUIDispatch@@@Z @ 4580 NONAME
	 ?OpenDocumentFile@CDocObjectTemplate@@UAEPAVCDocument@@PBDH@Z @ 4581 NONAME
	 ?OpenDocumentFile@CFileNewWizardTemplate@@UAEPAVCDocument@@PBDH@Z @ 4582 NONAME
	 ?OpenDocumentFile@CPartTemplate@@UAEPAVCDocument@@PBDH@Z @ 4583 NONAME
	 ?OpenDocumentFile@CTheApp@@UAEPAVCDocument@@PBD@Z @ 4584 NONAME
	 ?OpenDocumentFileEx@CTheApp@@QAEPAVCDocument@@PBDH@Z @ 4585 NONAME
	 ?OpenDocumentHook@CDocObjectDoc@@UAEHPBD@Z @ 4586 NONAME
	 ?OpenDocumentHook@CIPCompDoc@@UAEHPBD@Z @ 4587 NONAME
	 ?OpenDocumentHook@CPartDoc@@MAEHPBD@Z @ 4588 NONAME
	 ?OpenFile@CStateSaver@@QAEHAAVCInitFile@@GPBD1@Z @ 4589 NONAME
	 ?OpenFile@CTheApp@@QAEPAVCDocument@@PAVCDocTemplate@@VCString@@H@Z @ 4590 NONAME
	 ?OpenMSF@CStateSaver@@QAEHPBDH@Z @ 4591 NONAME
	 ?OpenStorage@COLEStorage@@QAEXPBDPAV1@@Z @ 4592 NONAME
	 ?OpenStorage@CStateSaver@@QAEHPBD@Z @ 4593 NONAME
	 ?OpenStream@COLEStorage@@QAEXPBDPAVCOleStreamFile@@@Z @ 4594 NONAME
	 ?OpenStream@CStateSaver@@QAEHAAVCInitFile@@VCString@@@Z @ 4595 NONAME
	 ?OpenURL@@YAXAAVCString@@W4EOpenURLOption@@@Z @ 4596 NONAME
	 ?PageDown@CUndoList@@QAEXXZ @ 4597 NONAME
	 ?PageUp@CUndoList@@QAEXXZ @ 4598 NONAME
	 ?PaintAddInfo@CAboutDlg@@QAEXAAVCDC@@@Z @ 4599 NONAME
	 ?PaletteSize@@YAGPAD@Z @ 4600 NONAME
	 ?PaletteSize@GLOBAL_DATA@@SAGPAX@Z @ 4601 NONAME
	 ?ParentChild@CMDIChildDock@@QAEXPAVCWnd@@@Z @ 4602 NONAME
	 ?ParentCloseDocumentHook@CPartDoc@@IAEXXZ @ 4603 NONAME
	 ?ParentNewDocumentHook@CPartDoc@@IAEHXZ @ 4604 NONAME
	 ?ParentOpenDocumentHook@CPartDoc@@IAEHPBD@Z @ 4605 NONAME
	 ?ParentSaveDocumentHook@CPartDoc@@IAEHPBDI@Z @ 4606 NONAME
	 ?ParseCommand@CCmdCache@@IAEPBEPBEHPAVCPack@@AAUCTE@@PAH@Z @ 4607 NONAME
	 ?ParseFilters@@YAXPBDAAVCStringArray@@@Z @ 4608 NONAME
	 ?ParseMacroName@@YAPBDPADPBDI@Z @ 4609 NONAME
	 ?ParseOutAccelerator@CBMenuItem@@IAEXVCString@@@Z @ 4610 NONAME
	 ?ParseRect@@YAHPBDAAVCRect@@@Z @ 4611 NONAME
	 ?ParseTipFileLine@@YA?AW4LineType@@AAVCString@@00@Z @ 4612 NONAME
	 ?Paste@CClipboardSlob@@QAEXPAVCSlob@@PAVCMultiSlob@@H@Z @ 4613 NONAME
	 ?PasteButtonImage@CCustomBar@@QAEXXZ @ 4614 NONAME
	 ?PasteButtonImage@CCustomBarProxy@@UAEXXZ @ 4615 NONAME
	 ?PasteButtonImage@CMenuPopupProxy@@UAEXXZ @ 4616 NONAME
	 ?PasteGlyph@GLOBAL_DATA@@SAXPAVCWnd@@PAUHBITMAP__@@HVCSize@@@Z @ 4617 NONAME
	 ?Peek@CFmtElementIterator@@QBEPAUFMT_ELEMENT@@XZ @ 4618 NONAME
	 ?Peek@CFmtGroupIterator@@QBEPAUFMT_WINGROUP@@XZ @ 4619 NONAME
	 ?Peek@CFmtIterator@@QBEPAVCFormatInfo@@XZ @ 4620 NONAME
	 ?Peek@CFmtWindowIterator@@QBEPAUFMT_WINDOW@@XZ @ 4621 NONAME
	 ?PeekLinear@CFmtElementIterator@@QAEPAUFMT_ELEMENT@@XZ @ 4622 NONAME
	 ?PeekLinear@CFmtGroupIterator@@QAEPAUFMT_WINGROUP@@XZ @ 4623 NONAME
	 ?PeekLinear@CFmtWindowIterator@@QAEPAUFMT_WINDOW@@XZ @ 4624 NONAME
	 ?PercentDone@CSushiBar@@QAEXH@Z @ 4625 NONAME
	 ?PerformExternal@CConsoleSpawner@@AAEHPADH@Z @ 4626 NONAME
	 ?PerformInternal@CConsoleSpawner@@AAEHPADH@Z @ 4627 NONAME
	 ?PerformSpawn@CConsoleSpawner@@QAEHPADH@Z @ 4628 NONAME
	 ?PerformSpawnMultiple@CConsoleSpawner@@QAEHPAVCStringList@@@Z @ 4629 NONAME
	 ?PFileDataOverspill@CFileChange@@IAEPAVCFileData@@PBDAAPAU__POSITION@@@Z @ 4630 NONAME
	 ?PGoToDialogCur@CGoToDialog@@SAPAV1@XZ @ 4631 NONAME
	 ?PinPropertyBrowser@@YAXH@Z @ 4632 NONAME
	 ?PlayDevSound@@YAHIK@Z @ 4633 NONAME
	 ?PlayDevSound@@YAHPBDK@Z @ 4634 NONAME
	 ?PointOnControl@CDropControl@@QAEHVCPoint@@@Z @ 4635 NONAME
	 ?PointOnLeft@CDropControl@@QAEHVCPoint@@@Z @ 4636 NONAME
	 ?PointOnListBox@CDropControl@@QAEHVCPoint@@@Z @ 4637 NONAME
	 ?PointOnScrollDown@CDropControl@@QAEHVCPoint@@@Z @ 4638 NONAME
	 ?PointOnScrollUp@CDropControl@@QAEHVCPoint@@@Z @ 4639 NONAME
	 ?PollForMouseChange@@YAHAAVCPoint@@HAAHH@Z @ 4640 NONAME
	 ?PopError@@YAJPAUTERROR@@@Z @ 4641 NONAME
	 ?PopHelpContext@@YAIXZ @ 4642 NONAME
	 ?PopupDescFromGuidId@CIPCompDoc@@UAEPAUPOPDESC@@ABU_GUID@@I@Z @ 4643 NONAME
	 ?PositionControls@CMessageBox@@IAEXXZ @ 4644 NONAME
	 ?PositionToProperty@CPropList@@QAEXPAVCRect@@PAVCPropItem@@@Z @ 4645 NONAME
	 ?PostFixNumber@CPath@@QAEXXZ @ 4646 NONAME
	 ?PostModalWindow@@YAXXZ @ 4647 NONAME
	 ?PostNcDestroy@CASBar@@MAEXXZ @ 4648 NONAME
	 ?PostNcDestroy@CBMenuPopup@@MAEXXZ @ 4649 NONAME
	 ?PostNcDestroy@CBorderBar@@MAEXXZ @ 4650 NONAME
	 ?PostNcDestroy@CDockCombo@@MAEXXZ @ 4651 NONAME
	 ?PostNcDestroy@CDropControl@@MAEXXZ @ 4652 NONAME
	 ?PostNcDestroy@CGoToDialog@@UAEXXZ @ 4653 NONAME
	 ?PostNcDestroy@CMDIClientValidator@@MAEXXZ @ 4654 NONAME
	 ?PostNcDestroy@COptDlg@@UAEXXZ @ 4655 NONAME
	 ?PostNcDestroy@CSlobWnd@@UAEXXZ @ 4656 NONAME
	 ?PostNcDestroy@CToolbarEditCombo@@UAEXXZ @ 4657 NONAME
	 ?PostNewDocument@CPartDoc@@IAEHH@Z @ 4658 NONAME
	 ?PostOpenDocument@CPartDoc@@IAEHH@Z @ 4659 NONAME
	 ?PostSaveDocument@CPartDoc@@IAEHH@Z @ 4660 NONAME
	 ?PrdFindProp@@YAPBUPRD@@PBU1@I@Z @ 4661 NONAME
	 ?PreAct@CMultiSlob@@UAEHW4ACTION_TYPE@@@Z @ 4662 NONAME
	 ?PreAct@CSlob@@UAEHW4ACTION_TYPE@@@Z @ 4663 NONAME
	 ?PreCloseDocument@CPartDoc@@MAEXXZ @ 4664 NONAME
	 ?PreCreateWindow@COldStatusBar@@UAEHAAUtagCREATESTRUCTA@@@Z @ 4665 NONAME
	 ?PreCreateWindow@CTreeCtl@@UAEHAAUtagCREATESTRUCTA@@@Z @ 4666 NONAME
	 ?PreCreateWindow@CWidgetScrollBar@@UAEHAAUtagCREATESTRUCTA@@@Z @ 4667 NONAME
	 ?PreModalWindow@@YAXXZ @ 4668 NONAME
	 ?PrepareAddList@CSlob@@UAEXPAVCMultiSlob@@H@Z @ 4669 NONAME
	 ?PrepareDrawButton@COldToolBar@@IAEHAAUDrawState@1@@Z @ 4670 NONAME
	 ?PrepareDrop@CSlob@@UAEXPAVCDragNDrop@@@Z @ 4671 NONAME
	 ?PreTransfer@CDockWorker@@QAEXPAVCDockManager@@@Z @ 4672 NONAME
	 ?PreTranslateMessage@CDlgTab@@MAEHPAUtagMSG@@@Z @ 4673 NONAME
	 ?PreTranslateMessage@CDockEdit@@MAEHPAUtagMSG@@@Z @ 4674 NONAME
	 ?PreTranslateMessage@CDockWnd@@MAEHPAUtagMSG@@@Z @ 4675 NONAME
	 ?PreTranslateMessage@CDropControl@@MAEHPAUtagMSG@@@Z @ 4676 NONAME
	 ?PreTranslateMessage@CFindCombo@@UAEHPAUtagMSG@@@Z @ 4677 NONAME
	 ?PreTranslateMessage@CFloatingFrameWnd@@UAEHPAUtagMSG@@@Z @ 4678 NONAME
	 ?PreTranslateMessage@CGoToDialog@@UAEHPAUtagMSG@@@Z @ 4679 NONAME
	 ?PreTranslateMessage@CGridControlWnd@@UAEHPAUtagMSG@@@Z @ 4680 NONAME
	 ?PreTranslateMessage@CHelpKeyWnd@@MAEHPAUtagMSG@@@Z @ 4681 NONAME
	 ?PreTranslateMessage@CIPCompView@@UAEHPAUtagMSG@@@Z @ 4682 NONAME
	 ?PreTranslateMessage@CMainFrame@@MAEHPAUtagMSG@@@Z @ 4683 NONAME
	 ?PreTranslateMessage@COleAllPage@@UAEHPAUtagMSG@@@Z @ 4684 NONAME
	 ?PreTranslateMessage@COlePage@@UAEHPAUtagMSG@@@Z @ 4685 NONAME
	 ?PreTranslateMessage@CPackage@@UAEHPAUtagMSG@@@Z @ 4686 NONAME
	 ?PreTranslateMessage@CPaletteWnd@@MAEHPAUtagMSG@@@Z @ 4687 NONAME
	 ?PreTranslateMessage@CPartFrame@@MAEHPAUtagMSG@@@Z @ 4688 NONAME
	 ?PreTranslateMessage@CPartView@@UAEHPAUtagMSG@@@Z @ 4689 NONAME
	 ?PreTranslateMessage@CPropListBox@@UAEHPAUtagMSG@@@Z @ 4690 NONAME
	 ?PreTranslateMessage@CSheetWnd@@UAEHPAUtagMSG@@@Z @ 4691 NONAME
	 ?PreTranslateMessage@CSlobPage@@UAEHPAUtagMSG@@@Z @ 4692 NONAME
	 ?PreTranslateMessage@CSlobWnd@@UAEHPAUtagMSG@@@Z @ 4693 NONAME
	 ?PreTranslateMessage@CTabbedDialog@@UAEHPAUtagMSG@@@Z @ 4694 NONAME
	 ?PreTranslateMessage@CTap@@UAEHPAUtagMSG@@@Z @ 4695 NONAME
	 ?PreTranslateMessage@CTheApp@@UAEHPAUtagMSG@@@Z @ 4696 NONAME
	 ?PreTranslateMessage@CToolbarEditCombo@@UAEHPAUtagMSG@@@Z @ 4697 NONAME
	 ?PreTranslateMessage@CTreeCtl@@UAEHPAUtagMSG@@@Z @ 4698 NONAME
	 ?PreTranslateMessage@CTreeListBox@@MAEHPAUtagMSG@@@Z @ 4699 NONAME
	 ?PreTranslateSysKey@C3dDialogBar@@UAEHPAUtagMSG@@@Z @ 4700 NONAME
	 ?PrintOut@CAutoDocumentDefault@@IAEHXZ @ 4701 NONAME
	 ?PrintOut@XGenericDocument@CAutoDocumentDefault@@EAGJPAF@Z @ 4702 NONAME
	 ?PrintToOutputWindow@CApplication@@QAEXPBD@Z @ 4703 NONAME
	 ?PrintToOutputWindow@XApplication@CApplication@@EAGJPAG@Z @ 4704 NONAME
	 ?ProcessCommands@CCmdCache@@QAEXPAVCMainGroup@@HHH@Z @ 4705 NONAME
	 ?ProcessKeyboard@CGridControlWnd@@UAEHPAUtagMSG@@H@Z @ 4706 NONAME
	 ?ProcessKeyboard@CGridWnd@@UAEHPAUtagMSG@@H@Z @ 4707 NONAME
	 ?ProcessKeyboard@CStringListGridWnd@@UAEHPAUtagMSG@@H@Z @ 4708 NONAME
	 ?ProcessKeyboard@CToolsGrid@@UAEHPAUtagMSG@@H@Z @ 4709 NONAME
	 ?PropPageIdle@@YAXXZ @ 4710 NONAME
	 ?PtInMenus@CBMenuPopup@@QAEHVCPoint@@@Z @ 4711 NONAME
	 ?PtVisible@CDC@@UBEHHH@Z @ 4712 NONAME
	 ?PumpMessage@CTheApp@@UAEHXZ @ 4713 NONAME
	 ?PushError@@YAHPAUTERROR@@K@Z @ 4714 NONAME
	 ?PushHelpContext@@YAXI@Z @ 4715 NONAME
	 ?put@?$CQueue@VFCItem@@AAV1@@@QAEHAAVFCItem@@AAI@Z @ 4716 NONAME
	 ?put_Active@XApplication@CApplication@@EAGJF@Z @ 4717 NONAME
	 ?put_Active@XGenericDocument@CAutoDocumentDefault@@EAGJF@Z @ 4718 NONAME
	 ?put_Active@XGenericWindow@CAutoWindowDefault@@EAGJF@Z @ 4719 NONAME
	 ?put_ActiveConfiguration@XApplication@CApplication@@EAGJPAUIDispatch@@@Z @ 4720 NONAME
	 ?put_ActiveProject@XApplication@CApplication@@EAGJPAUIDispatch@@@Z @ 4721 NONAME
	 ?put_CurrentDirectory@XApplication@CApplication@@EAGJPAG@Z @ 4722 NONAME
	 ?put_Height@XApplication@CApplication@@EAGJJ@Z @ 4723 NONAME
	 ?put_Height@XGenericWindow@CAutoWindowDefault@@EAGJJ@Z @ 4724 NONAME
	 ?put_Left@XApplication@CApplication@@EAGJJ@Z @ 4725 NONAME
	 ?put_Left@XGenericWindow@CAutoWindowDefault@@EAGJJ@Z @ 4726 NONAME
	 ?put_ReadOnly@XGenericDocument@CAutoDocumentDefault@@EAGJF@Z @ 4727 NONAME
	 ?put_Top@XApplication@CApplication@@EAGJJ@Z @ 4728 NONAME
	 ?put_Top@XGenericWindow@CAutoWindowDefault@@EAGJJ@Z @ 4729 NONAME
	 ?put_Visible@XApplication@CApplication@@EAGJF@Z @ 4730 NONAME
	 ?put_Width@XApplication@CApplication@@EAGJJ@Z @ 4731 NONAME
	 ?put_Width@XGenericWindow@CAutoWindowDefault@@EAGJJ@Z @ 4732 NONAME
	 ?put_WindowState@XApplication@CApplication@@EAGJW4DsWindowState@@@Z @ 4733 NONAME
	 ?put_WindowState@XGenericWindow@CAutoWindowDefault@@EAGJW4DsWindowState@@@Z @ 4734 NONAME
	 ?PutFocus@CTabRow@@QAEXH@Z @ 4735 NONAME
	 ?PwndSplashScreen@@YAPAVCWnd@@XZ @ 4736 NONAME
	 ?QueryCmdStatus@CIPCompFrameHook@@IAEHPAUIOleCommandTarget@@PAU_GUID@@IPAVCCmdUI@@K@Z @ 4737 NONAME
	 ?QueryInterface@CEnumOleUndoUnit@@UAGJABU_GUID@@PAPAX@Z @ 4738 NONAME
	 ?QueryInterface@CMyOleDispatchImpl@@UAGJABU_GUID@@PAPAX@Z @ 4739 NONAME
	 ?QueryInterface@COleParentUndoUnit@@UAGJABU_GUID@@PAPAX@Z @ 4740 NONAME
	 ?QueryInterface@COleUndoManager@@UAGJABU_GUID@@PAPAX@Z @ 4741 NONAME
	 ?QueryInterface@COleUndoUnit@@UAGJABU_GUID@@PAPAX@Z @ 4742 NONAME
	 ?QueryInterface@XAmbientDispatch@CIPCompContainerItem@@UAGJABU_GUID@@PAPAX@Z @ 4743 NONAME
	 ?QueryInterface@XApplication@CApplication@@EAGJABU_GUID@@PAPAX@Z @ 4744 NONAME
	 ?QueryInterface@XAutomationItems@CVshellPackage@@UAGJABU_GUID@@PAPAX@Z @ 4745 NONAME
	 ?QueryInterface@XBuilderWizardManager@CBuilderWizardManager@@UAGJABU_GUID@@PAPAX@Z @ 4746 NONAME
	 ?QueryInterface@XDocuments@CAutoDocuments@@EAGJABU_GUID@@PAPAX@Z @ 4747 NONAME
	 ?QueryInterface@XDualObjs@CAutoCollection@@EAGJABU_GUID@@PAPAX@Z @ 4748 NONAME
	 ?QueryInterface@XEnumVariant@CEnumVariantObjs@@UAGJABU_GUID@@PAPAX@Z @ 4749 NONAME
	 ?QueryInterface@XGenericDocument@CAutoDocumentDefault@@EAGJABU_GUID@@PAPAX@Z @ 4750 NONAME
	 ?QueryInterface@XGenericWindow@CAutoWindowDefault@@EAGJABU_GUID@@PAPAX@Z @ 4751 NONAME
	 ?QueryInterface@XInternalTrackSelection@CInternalTrackSelection@@UAGJABU_GUID@@PAPAX@Z @ 4752 NONAME
	 ?QueryInterface@XIPCompBuilderWizardManager@CIPCompBuilderWizardManager@@UAGJABU_GUID@@PAPAX@Z @ 4753 NONAME
	 ?QueryInterface@XMsoComponent@CIPCompMainFrame@@UAGJABU_GUID@@PAPAX@Z @ 4754 NONAME
	 ?QueryInterface@XMsoComponentHost@CIPCompHostApp@@UAGJABU_GUID@@PAPAX@Z @ 4755 NONAME
	 ?QueryInterface@XMyOleClientSite@CIPCompContainerItem@@UAGJABU_GUID@@PAPAX@Z @ 4756 NONAME
	 ?QueryInterface@XMyOleIPSite@CIPCompContainerItem@@UAGJABU_GUID@@PAPAX@Z @ 4757 NONAME
	 ?QueryInterface@XOleCommandTarget@CDocObjectFrameHook@@UAGJABU_GUID@@PAPAX@Z @ 4758 NONAME
	 ?QueryInterface@XOleCompUIMgr@CIPCompFrameHook@@UAGJABU_GUID@@PAPAX@Z @ 4759 NONAME
	 ?QueryInterface@XOleDocumentSite@CDocObjectContainerItem@@UAGJABU_GUID@@PAPAX@Z @ 4760 NONAME
	 ?QueryInterface@XOleInPlaceSite@CDocObjectContainerItem@@UAGJABU_GUID@@PAPAX@Z @ 4761 NONAME
	 ?QueryInterface@XOleIPComponentSite@CIPCompContainerItem@@UAGJABU_GUID@@PAPAX@Z @ 4762 NONAME
	 ?QueryInterface@XOleIPCompUIMgr@CIPCompFrameHook@@UAGJABU_GUID@@PAPAX@Z @ 4763 NONAME
	 ?QueryInterface@XProjects@CAutoProjects@@EAGJABU_GUID@@PAPAX@Z @ 4764 NONAME
	 ?QueryInterface@XPropertyNotifySink@COleAllPage@@UAGJABU_GUID@@PAPAX@Z @ 4765 NONAME
	 ?QueryInterface@XPropertyPageSite@COlePage@@UAGJABU_GUID@@PAPAX@Z @ 4766 NONAME
	 ?QueryInterface@XRecordNotifyShell@CVshellPackage@@UAGJABU_GUID@@PAPAX@Z @ 4767 NONAME
	 ?QueryInterface@XServiceProvider@CApplication@@UAGJABU_GUID@@PAPAX@Z @ 4768 NONAME
	 ?QueryInterface@XServiceProvider@CDocObjectContainerItem@@UAGJABU_GUID@@PAPAX@Z @ 4769 NONAME
	 ?QueryInterface@XServiceProvider@CIPCompFrameHook@@UAGJABU_GUID@@PAPAX@Z @ 4770 NONAME
	 ?QueryInterface@XServiceProvider@CIPCompMessageFilter@@UAGJABU_GUID@@PAPAX@Z @ 4771 NONAME
	 ?QueryInterface@XSupportErrorInfo@CApplication@@UAGJABU_GUID@@PAPAX@Z @ 4772 NONAME
	 ?QueryInterface@XSupportErrorInfo@CAutoDocumentDefault@@UAGJABU_GUID@@PAPAX@Z @ 4773 NONAME
	 ?QueryInterface@XSupportErrorInfo@CAutoDocuments@@UAGJABU_GUID@@PAPAX@Z @ 4774 NONAME
	 ?QueryInterface@XSupportErrorInfo@CAutoProjects@@UAGJABU_GUID@@PAPAX@Z @ 4775 NONAME
	 ?QueryInterface@XSupportErrorInfo@CAutoWindowDefault@@UAGJABU_GUID@@PAPAX@Z @ 4776 NONAME
	 ?QueryInterface@XSupportErrorInfo@CAutoWindows@@UAGJABU_GUID@@PAPAX@Z @ 4777 NONAME
	 ?QueryInterface@XTrackSelection@COleTrackSelection@@UAGJABU_GUID@@PAPAX@Z @ 4778 NONAME
	 ?QueryInterface@XWindows@CAutoWindows@@EAGJABU_GUID@@PAPAX@Z @ 4779 NONAME
	 ?QueryService@XMsoComponentHost@CIPCompHostApp@@UAGJABU_GUID@@0PAPAX@Z @ 4780 NONAME
	 ?QueryService@XServiceProvider@CApplication@@UAGJABU_GUID@@0PAPAX@Z @ 4781 NONAME
	 ?QueryService@XServiceProvider@CDocObjectContainerItem@@UAGJABU_GUID@@0PAPAX@Z @ 4782 NONAME
	 ?QueryService@XServiceProvider@CIPCompFrameHook@@UAGJABU_GUID@@0PAPAX@Z @ 4783 NONAME
	 ?QueryService@XServiceProvider@CIPCompMessageFilter@@UAGJABU_GUID@@0PAPAX@Z @ 4784 NONAME
	 ?QueryStatus@XOleCommandTarget@CDocObjectFrameHook@@UAGJPBU_GUID@@KQAU_tagOLECMD@@PAU_tagOLECMDTEXT@@@Z @ 4785 NONAME
	 ?QuestionBox@@YAHIIZZ @ 4786 NONAME
	 ?Quit@CApplication@@QAEXXZ @ 4787 NONAME
	 ?Quit@XApplication@CApplication@@EAGJXZ @ 4788 NONAME
	 ?RankOrder@CTipState@@QAEHXZ @ 4789 NONAME
	 ?ReactivateView@CTheApp@@QAEXXZ @ 4790 NONAME
	 ?Read@CTipState@@QAEHABVCFile@@H@Z @ 4791 NONAME
	 ?Read@CTipState@@QAEHPBD@Z @ 4792 NONAME
	 ?ReadChildProcessOutput@CConsoleSpawner@@CAXPAX@Z @ 4793 NONAME
	 ?ReadInitData@CTreeCtl@@QAEXPAVCPartFrame@@@Z @ 4794 NONAME
	 ?ReadList@CTypedRecentFileList@@UAEXXZ @ 4795 NONAME
	 ?ReadOnly@CPartDoc@@IAEHXZ @ 4796 NONAME
	 ?ReadProfile@CHelpKeyWnd@@QAEXXZ @ 4797 NONAME
	 ?RebuildAll@CApplication@@QAEXABUtagVARIANT@@@Z @ 4798 NONAME
	 ?RebuildAll@XApplication@CApplication@@EAGJUtagVARIANT@@@Z @ 4799 NONAME
	 ?RebuildMenus@CCmd@@UAEHPAVCBMenuPopup@@H@Z @ 4800 NONAME
	 ?RebuildMenus@CCmd@@UAEHPAVCMenu@@@Z @ 4801 NONAME
	 ?RebuildMenus@CCmdGroup@@UAEHPAVCBMenuPopup@@H@Z @ 4802 NONAME
	 ?RebuildMenus@CCmdGroup@@UAEHPAVCMenu@@@Z @ 4803 NONAME
	 ?RebuildMenus@CCmdGroupSeparator@@UAEHPAVCBMenuPopup@@H@Z @ 4804 NONAME
	 ?RebuildMenus@CCmdGroupSeparator@@UAEHPAVCMenu@@@Z @ 4805 NONAME
	 ?RebuildMenus@CCmdMenu@@UAEHPAVCBMenuPopup@@H@Z @ 4806 NONAME
	 ?RebuildMenus@CCmdMenu@@UAEHPAVCMenu@@@Z @ 4807 NONAME
	 ?RebuildMenus@CMainFrame@@QAEXHHH@Z @ 4808 NONAME
	 ?RecalcBarLayout@C3dDialogBar@@QAEXW4DOCKPOS@@H@Z @ 4809 NONAME
	 ?RecalcHorizontalExtent@CTreeCtl@@UAEXXZ @ 4810 NONAME
	 ?RecalcLayout@CBorderBar@@QAEXXZ @ 4811 NONAME
	 ?RecalcLayout@CCustomBar@@UAEXIPAW4ORIENTATION@@@Z @ 4812 NONAME
	 ?RecalcLayout@CCustomBarProxy@@UAEXI@Z @ 4813 NONAME
	 ?RecalcLayout@CMainFrame@@UAEXH@Z @ 4814 NONAME
	 ?RecalcLayout@CMenuPopupProxy@@UAEXI@Z @ 4815 NONAME
	 ?RecalcLayout@CSheetWnd@@UAEXH@Z @ 4816 NONAME
	 ?RecalcLayout@CWidgetScrollBar@@QAEXXZ @ 4817 NONAME
	 ?RecalcRow@CDockWnd@@IAEXPAU_DWI@@HPAVCWnd@@H@Z @ 4818 NONAME
	 ?RecalcSizes@CCustomBar@@UAEXXZ @ 4819 NONAME
	 ?RecalculateIME@CPartView@@UAEXXZ @ 4820 NONAME
	 ?RECharLen@@YGHPAD@Z @ 4821 NONAME
	 ?RECharType@@YGHPAD@Z @ 4822 NONAME
	 ?REClosureChar@@YGDPADPAUpatType@@@Z @ 4823 NONAME
	 ?REClosureLen@@YGHPAD@Z @ 4824 NONAME
	 ?RECompile@@YAPAUpatType@@PADDW4reSyntax@@@Z @ 4825 NONAME
	 ?RecordDefaultTextIfNecessary@CMainFrame@@IAEXG@Z @ 4826 NONAME
	 ?RecoverAutosaveFileCheck@CAutosave@@UAEHABVCPath@@@Z @ 4827 NONAME
	 ?RectVisible@CDC@@UBEHPBUtagRECT@@@Z @ 4828 NONAME
	 ?RecurseDeleteKey@CRegKey@ATL@@QAEJPBD@Z @ 4829 NONAME
	 ?Redo@CAutoDocumentDefault@@IAEHXZ @ 4830 NONAME
	 ?Redo@XGenericDocument@CAutoDocumentDefault@@EAGJPAF@Z @ 4831 NONAME
	 ?RedoTo@COleUndoManager@@UAGJPAUIOleUndoUnit@@@Z @ 4832 NONAME
	 ?REEstimate@@YAHPADPAH@Z @ 4833 NONAME
	 ?Refresh@CTreeCtl@@QAEXH@Z @ 4834 NONAME
	 ?Refresh@CTreeCtl@@QAEXPAVCNode@@H@Z @ 4835 NONAME
	 ?RefreshAllRoots@CTreeCtl@@QAEXXZ @ 4836 NONAME
	 ?RefreshButtonBitmap@CCustomBar@@IAEXPAUHDC__@@0H@Z @ 4837 NONAME
	 ?RefreshButtonBitmaps@CCustomBar@@IAEXXZ @ 4838 NONAME
	 ?RegenSizes@CFontColorDlg@@QAEXH@Z @ 4839 NONAME
	 ?REGetArg@@YADPAUpatType@@HPAD@Z @ 4840 NONAME
	 ?Register@CApplicationFactory@@UAEHXZ @ 4841 NONAME
	 ?RegisterDevSoundEvent@@YAHII@Z @ 4842 NONAME
	 ?RegisterDevSoundEvent@@YAHPBD0@Z @ 4843 NONAME
	 ?RegisterInfo@CDockManager@@QAEXIPAUDOCKINIT@@@Z @ 4844 NONAME
	 ?RegisterPackage@CTheApp@@QAEHPAVCPackage@@@Z @ 4845 NONAME
	 ?RegisterPacket@CTheApp@@QAEHPAVCPacket@@@Z @ 4846 NONAME
	 ?RegisterToolbar@CDockManager@@QAEPAVCDockWorker@@PAUDOCKINIT@@PAUTOOLBARINIT@@PAI@Z @ 4847 NONAME
	 ?RegisterTypeLib@CVshellPackage@@IAEXPAVCPackage@@HH@Z @ 4848 NONAME
	 ?RegisterTypeLibsIfNecessary@CVshellPackage@@QAEXH@Z @ 4849 NONAME
	 ?RegisterWnd@CDockManager@@QAEPAVCDockWorker@@PAUHWND__@@PAUDOCKINIT@@@Z @ 4850 NONAME
	 ?RegisterWnd@CDockManager@@QAEPAVCDockWorker@@PAVCWnd@@PAUDOCKINIT@@@Z @ 4851 NONAME
	 ?ReInit@CFileOpenReturn@@QAEXPBD@Z @ 4852 NONAME
	 ?Release@CBMenuItem@@QAEXXZ @ 4853 NONAME
	 ?Release@CEnumOleUndoUnit@@UAGKXZ @ 4854 NONAME
	 ?Release@CMyOleDispatchImpl@@UAGKXZ @ 4855 NONAME
	 ?Release@COleParentUndoUnit@@UAGKXZ @ 4856 NONAME
	 ?Release@COleUndoManager@@UAGKXZ @ 4857 NONAME
	 ?Release@COleUndoUnit@@UAGKXZ @ 4858 NONAME
	 ?Release@XAmbientDispatch@CIPCompContainerItem@@UAGKXZ @ 4859 NONAME
	 ?Release@XApplication@CApplication@@EAGKXZ @ 4860 NONAME
	 ?Release@XAutomationItems@CVshellPackage@@UAGKXZ @ 4861 NONAME
	 ?Release@XBuilderWizardManager@CBuilderWizardManager@@UAGKXZ @ 4862 NONAME
	 ?Release@XDocuments@CAutoDocuments@@EAGKXZ @ 4863 NONAME
	 ?Release@XDualObjs@CAutoCollection@@EAGKXZ @ 4864 NONAME
	 ?Release@XEnumVariant@CEnumVariantObjs@@UAGKXZ @ 4865 NONAME
	 ?Release@XGenericDocument@CAutoDocumentDefault@@EAGKXZ @ 4866 NONAME
	 ?Release@XGenericWindow@CAutoWindowDefault@@EAGKXZ @ 4867 NONAME
	 ?Release@XInternalTrackSelection@CInternalTrackSelection@@UAGKXZ @ 4868 NONAME
	 ?Release@XIPCompBuilderWizardManager@CIPCompBuilderWizardManager@@UAGKXZ @ 4869 NONAME
	 ?Release@XMsoComponent@CIPCompMainFrame@@UAGKXZ @ 4870 NONAME
	 ?Release@XMsoComponentHost@CIPCompHostApp@@UAGKXZ @ 4871 NONAME
	 ?Release@XMyOleClientSite@CIPCompContainerItem@@UAGKXZ @ 4872 NONAME
	 ?Release@XMyOleIPSite@CIPCompContainerItem@@UAGKXZ @ 4873 NONAME
	 ?Release@XOleCommandTarget@CDocObjectFrameHook@@UAGKXZ @ 4874 NONAME
	 ?Release@XOleCompUIMgr@CIPCompFrameHook@@UAGKXZ @ 4875 NONAME
	 ?Release@XOleDocumentSite@CDocObjectContainerItem@@UAGKXZ @ 4876 NONAME
	 ?Release@XOleInPlaceSite@CDocObjectContainerItem@@UAGKXZ @ 4877 NONAME
	 ?Release@XOleIPComponentSite@CIPCompContainerItem@@UAGKXZ @ 4878 NONAME
	 ?Release@XOleIPCompUIMgr@CIPCompFrameHook@@UAGKXZ @ 4879 NONAME
	 ?Release@XProjects@CAutoProjects@@EAGKXZ @ 4880 NONAME
	 ?Release@XPropertyNotifySink@COleAllPage@@UAGKXZ @ 4881 NONAME
	 ?Release@XPropertyPageSite@COlePage@@UAGKXZ @ 4882 NONAME
	 ?Release@XRecordNotifyShell@CVshellPackage@@UAGKXZ @ 4883 NONAME
	 ?Release@XServiceProvider@CApplication@@UAGKXZ @ 4884 NONAME
	 ?Release@XServiceProvider@CDocObjectContainerItem@@UAGKXZ @ 4885 NONAME
	 ?Release@XServiceProvider@CIPCompFrameHook@@UAGKXZ @ 4886 NONAME
	 ?Release@XServiceProvider@CIPCompMessageFilter@@UAGKXZ @ 4887 NONAME
	 ?Release@XSupportErrorInfo@CApplication@@UAGKXZ @ 4888 NONAME
	 ?Release@XSupportErrorInfo@CAutoDocumentDefault@@UAGKXZ @ 4889 NONAME
	 ?Release@XSupportErrorInfo@CAutoDocuments@@UAGKXZ @ 4890 NONAME
	 ?Release@XSupportErrorInfo@CAutoProjects@@UAGKXZ @ 4891 NONAME
	 ?Release@XSupportErrorInfo@CAutoWindowDefault@@UAGKXZ @ 4892 NONAME
	 ?Release@XSupportErrorInfo@CAutoWindows@@UAGKXZ @ 4893 NONAME
	 ?Release@XTrackSelection@COleTrackSelection@@UAGKXZ @ 4894 NONAME
	 ?Release@XWindows@CAutoWindows@@EAGKXZ @ 4895 NONAME
	 ?ReleaseAppToolGroups@CAppToolGroups@@SAXXZ @ 4896 NONAME
	 ?ReleaseBuildSystem@CIdeInterface@@QAEXXZ @ 4897 NONAME
	 ?ReleaseCachedObjects@CIPCompSlob@@IAEXXZ @ 4898 NONAME
	 ?ReleaseCapture@CGridElement@@QAEXXZ @ 4899 NONAME
	 ?ReleaseComponentManager@CIPCompMainFrame@@QAEXXZ @ 4900 NONAME
	 ?ReleaseDispatch@CMiniOleDispatchDriver@@QAEXXZ @ 4901 NONAME
	 ?ReleaseHelpInterface@@YAXXZ @ 4902 NONAME
	 ?ReleaseInterfaces@COleAllPage@@IAEXXZ @ 4903 NONAME
	 ?ReleaseOutputWindow@CIdeInterface@@QAEXXZ @ 4904 NONAME
	 ?ReleaseProjectWorkspace@CIdeInterface@@QAEXXZ @ 4905 NONAME
	 ?ReleaseSourceQuery@CIdeInterface@@QAEXXZ @ 4906 NONAME
	 ?ReleaseWizBarIFace@CIdeInterface@@QAEXXZ @ 4907 NONAME
	 ?RELength@@YAHPAUpatType@@H@Z @ 4908 NONAME
	 ?ReloadMacros@CCommandTab@@IAEXXZ @ 4909 NONAME
	 ?REMatch@@YAHPAUpatType@@PBD1QAPAEIDPAH@Z @ 4910 NONAME
	 ?RememberTab@CLastTabMap@@QAEXGAAVCString@@@Z @ 4911 NONAME
	 ?Remove@CMultiSlob@@UAEXPAVCSlob@@@Z @ 4912 NONAME
	 ?Remove@CSlob@@UAEXPAV1@@Z @ 4913 NONAME
	 ?RemoveAccel@@YAXAAVCString@@@Z @ 4914 NONAME
	 ?RemoveAll@?$CMap@IIPAV?$CTypedPtrArray@VCObArray@@PAVCPack@@@@AAPAV1@@@QAEXXZ @ 4915 NONAME
	 ?RemoveAll@?$CMap@IIPAVCBMenuPopup@@AAPAV1@@@QAEXXZ @ 4916 NONAME
	 ?RemoveAll@CDirList@@QAEXXZ @ 4917 NONAME
	 ?RemoveAll@CKeymap@@QAEXXZ @ 4918 NONAME
	 ?RemoveAll@CMapDirToOb@@QAEXXZ @ 4919 NONAME
	 ?RemoveAll@CMapPathToOb@@QAEXXZ @ 4920 NONAME
	 ?RemoveAll@CPathList@@QAEXXZ @ 4921 NONAME
	 ?RemoveAllAssoc@CSafeMapStringToOb@@QAEXXZ @ 4922 NONAME
	 ?RemoveAllCommandReferences@CASBar@@SAXI@Z @ 4923 NONAME
	 ?RemoveAt@CDirList@@QAEXPAU__POSITION@@@Z @ 4924 NONAME
	 ?RemoveAt@CPathList@@QAEXPAU__POSITION@@@Z @ 4925 NONAME
	 ?RemoveAutosaveFile@CAutosave@@UAEXABVCPath@@@Z @ 4926 NONAME
	 ?RemoveAutosaveFile@CAutosave@@UAEXHABVCPath@@@Z @ 4927 NONAME
	 ?RemoveBitmap@CCustomBar@@QAEXH@Z @ 4928 NONAME
	 ?RemoveBitmap@CCustomBarProxy@@UAEXH@Z @ 4929 NONAME
	 ?RemoveBitmap@CMenuPopupProxy@@UAEXH@Z @ 4930 NONAME
	 ?RemoveChangeIndicatorFromWindowCaption@CAutoWindowObj@@SAHAAVCString@@@Z @ 4931 NONAME
	 ?RemoveCommand@CCmdCache@@QAEHGPAVCPack@@@Z @ 4932 NONAME
	 ?RemoveCommand@CTheApp@@QAEHGPAVCPack@@@Z @ 4933 NONAME
	 ?RemoveCommandReferences@CASBar@@QAEHI@Z @ 4934 NONAME
	 ?RemoveCommandReferences@CBMenuPopup@@QAEXI@Z @ 4935 NONAME
	 ?RemoveControl@CCustomBar@@UAEXPAUHWND__@@@Z @ 4936 NONAME
	 ?RemoveDependant@CSlob@@QAEXPAV1@@Z @ 4937 NONAME
	 ?RemoveEntry@CPickList@@QAEXW4PickListType@@@Z @ 4938 NONAME
	 ?RemoveExtra@CCustomBar@@IAEXXZ @ 4939 NONAME
	 ?RemoveHead@CDirList@@QAEPAVCDir@@XZ @ 4940 NONAME
	 ?RemoveHead@CPathList@@QAEPAVCPath@@XZ @ 4941 NONAME
	 ?RemoveIPCompFrameHook@CMainFrame@@QAEXPAVCIPCompFrameHook@@@Z @ 4942 NONAME
	 ?RemoveKey@?$CMap@IIPAVCBMenuPopup@@AAPAV1@@@QAEHI@Z @ 4943 NONAME
	 ?RemoveKey@CKeymap@@QAEXGG@Z @ 4944 NONAME
	 ?RemoveKey@CMapDirToOb@@QAEHAAVCDir@@@Z @ 4945 NONAME
	 ?RemoveKey@CMapPathToOb@@QAEHAAVCPath@@@Z @ 4946 NONAME
	 ?RemoveLastSubdirName@CDir@@QAEXXZ @ 4947 NONAME
	 ?RemoveMDIChild@CDockManager@@QAEXPAVCMDIChildDock@@PAVCWnd@@PAV1@@Z @ 4948 NONAME
	 ?RemoveNewlines@@YAIPAD@Z @ 4949 NONAME
	 ?RemoveNode@CTreeCtl@@QAEXHH@Z @ 4950 NONAME
	 ?RemovePageFromUse@CSheetWnd@@QAEXPAVC3dPropertyPage@@@Z @ 4951 NONAME
	 ?RemovePalette@CDockManager@@QAEXPAVCPaletteWnd@@PAVCWnd@@PAV1@@Z @ 4952 NONAME
	 ?RemoveRow@CDockWnd@@IAEXPAU_DWI@@H@Z @ 4953 NONAME
	 ?RemoveRow@CGridWnd@@UAEXPAVCGridRow@@H@Z @ 4954 NONAME
	 ?RemoveSeparator@CCustomBar@@IAEXH@Z @ 4955 NONAME
	 ?RemoveSeparator@CCustomBarProxy@@UAEXH@Z @ 4956 NONAME
	 ?RemoveSeparator@CMenuPopupProxy@@UAEXH@Z @ 4957 NONAME
	 ?RemoveTab@CWidgetScrollBar@@QAEXH@Z @ 4958 NONAME
	 ?RemoveTail@CDirList@@QAEPAVCDir@@XZ @ 4959 NONAME
	 ?RemoveTail@CPathList@@QAEPAVCPath@@XZ @ 4960 NONAME
	 ?RemoveText@CCustomBar@@QAEXH@Z @ 4961 NONAME
	 ?RemoveText@CCustomBarProxy@@UAEXH@Z @ 4962 NONAME
	 ?RemoveText@CMenuPopupProxy@@UAEXH@Z @ 4963 NONAME
	 ?RemoveTextLabel@CCustomBar@@IAEXH@Z @ 4964 NONAME
	 ?RemoveToolbar@CToolbarDialog@@QAEXPAVCDockWorker@@@Z @ 4965 NONAME
	 ?RemoveTrailing@@YAXPADD@Z @ 4966 NONAME
	 ?RemoveWindows@CCustomBar@@IAEXXZ @ 4967 NONAME
	 ?RemoveWnd@CDockManager@@QAEXI@Z @ 4968 NONAME
	 ?RemoveWnd@CDockManager@@QAEXPAVCWnd@@@Z @ 4969 NONAME
	 ?RemoveWnd@CDockWnd@@QAEXPAVCWnd@@0@Z @ 4970 NONAME
	 ?RemoveWorker@CDockManager@@QAEXPAVCDockWorker@@PAU__POSITION@@@Z @ 4971 NONAME
	 ?REParseAbbrev@@YGPADP6AIHIEEPAUpatType@@@ZPAD0@Z @ 4972 NONAME
	 ?REParseAlt@@YGPADP6AIHIEEPAUpatType@@@ZPAD0@Z @ 4973 NONAME
	 ?REParseAltE@@YGPADP6AIHIEEPAUpatType@@@ZPAD0@Z @ 4974 NONAME
	 ?REParseAny@@YGPADP6AIHIEEPAUpatType@@@ZPAD0@Z @ 4975 NONAME
	 ?REParseBOL@@YGPADP6AIHIEEPAUpatType@@@ZPAD0@Z @ 4976 NONAME
	 ?REParseChar@@YGPADP6AIHIEEPAUpatType@@@ZPAD0@Z @ 4977 NONAME
	 ?REParseClass@@YGPADP6AIHIEEPAUpatType@@@ZPAD0@Z @ 4978 NONAME
	 ?REParseClosure@@YGPADP6AIHIEEPAUpatType@@@ZPAD0@Z @ 4979 NONAME
	 ?REParseE@@YGPADP6AIHIEEPAUpatType@@@ZPAD0@Z @ 4980 NONAME
	 ?REParseEOL@@YGPADP6AIHIEEPAUpatType@@@ZPAD0@Z @ 4981 NONAME
	 ?REParseGreedy@@YGPADP6AIHIEEPAUpatType@@@ZPAD0@Z @ 4982 NONAME
	 ?REParseGroup@@YGPADP6AIHIEEPAUpatType@@@ZPAD0@Z @ 4983 NONAME
	 ?REParseNot@@YGPADP6AIHIEEPAUpatType@@@ZPAD0@Z @ 4984 NONAME
	 ?REParsePower@@YGPADP6AIHIEEPAUpatType@@@ZPAD0@Z @ 4985 NONAME
	 ?REParsePrev@@YGPADP6AIHIEEPAUpatType@@@ZPAD0@Z @ 4986 NONAME
	 ?REParseRE@@YGPADP6AIHIEEPAUpatType@@@ZPADPAH0@Z @ 4987 NONAME
	 ?REParseSE@@YGPADP6AIHIEEPAUpatType@@@ZPAD0@Z @ 4988 NONAME
	 ?REParseWild@@YGPADP6AIHIEEPAUpatType@@@ZPAD0@Z @ 4989 NONAME
	 ?REParseXAscii@@YGPADP6AIHIEEPAUpatType@@@ZPAD0@Z @ 4990 NONAME
	 ?Replace@CPartDoc@@UAEHPBDI@Z @ 4991 NONAME
	 ?ReplaceCommandString@CCmdCache@@QAEXIIPBD@Z @ 4992 NONAME
	 ?ReplaceCommandString@CTheApp@@QAEXIIPBD@Z @ 4993 NONAME
	 ?ReplaceControl@CGridWnd@@QAEHPAVCWnd@@IIKKKH@Z @ 4994 NONAME
	 ?ReplaceSel@@YAXAAVCButtonEdit@@PBDW4NewSelPos@@HH@Z @ 4995 NONAME
	 ?ReplaceSel@CButtonEdit@@QAEXPBDH@Z @ 4996 NONAME
	 ?ReplaceString@CPartView@@UAEHPAUFINDREPLACEDISK@@H@Z @ 4997 NONAME
	 ?ReportMissingFile@@YAXPBDW4SETUP_TYPE@@@Z @ 4998 NONAME
	 ?RequestNewObjectLayout@XMyOleClientSite@CIPCompContainerItem@@UAGJXZ @ 4999 NONAME
	 ?RESearch@@YAHPBDPAK1PAUpatType@@0PAH@Z @ 5000 NONAME
	 ?Reserved1@XGenericDocument@CAutoDocumentDefault@@EAGJXZ @ 5001 NONAME
	 ?Reserved1@XGenericWindow@CAutoWindowDefault@@EAGJXZ @ 5002 NONAME
	 ?Reserved10@XGenericDocument@CAutoDocumentDefault@@EAGJXZ @ 5003 NONAME
	 ?Reserved10@XGenericWindow@CAutoWindowDefault@@EAGJXZ @ 5004 NONAME
	 ?Reserved2@XGenericDocument@CAutoDocumentDefault@@EAGJXZ @ 5005 NONAME
	 ?Reserved2@XGenericWindow@CAutoWindowDefault@@EAGJXZ @ 5006 NONAME
	 ?Reserved3@XGenericDocument@CAutoDocumentDefault@@EAGJXZ @ 5007 NONAME
	 ?Reserved3@XGenericWindow@CAutoWindowDefault@@EAGJXZ @ 5008 NONAME
	 ?Reserved4@XGenericDocument@CAutoDocumentDefault@@EAGJXZ @ 5009 NONAME
	 ?Reserved4@XGenericWindow@CAutoWindowDefault@@EAGJXZ @ 5010 NONAME
	 ?Reserved5@XGenericDocument@CAutoDocumentDefault@@EAGJXZ @ 5011 NONAME
	 ?Reserved5@XGenericWindow@CAutoWindowDefault@@EAGJXZ @ 5012 NONAME
	 ?Reserved6@XGenericDocument@CAutoDocumentDefault@@EAGJXZ @ 5013 NONAME
	 ?Reserved6@XGenericWindow@CAutoWindowDefault@@EAGJXZ @ 5014 NONAME
	 ?Reserved7@XGenericDocument@CAutoDocumentDefault@@EAGJXZ @ 5015 NONAME
	 ?Reserved7@XGenericWindow@CAutoWindowDefault@@EAGJXZ @ 5016 NONAME
	 ?Reserved8@XGenericDocument@CAutoDocumentDefault@@EAGJXZ @ 5017 NONAME
	 ?Reserved8@XGenericWindow@CAutoWindowDefault@@EAGJXZ @ 5018 NONAME
	 ?Reserved9@XGenericDocument@CAutoDocumentDefault@@EAGJXZ @ 5019 NONAME
	 ?Reserved9@XGenericWindow@CAutoWindowDefault@@EAGJXZ @ 5020 NONAME
	 ?Reset@CASBar@@QAEXXZ @ 5021 NONAME
	 ?Reset@CDockWorker@@QAEXPAUDOCKINIT@@@Z @ 5022 NONAME
	 ?Reset@CDockWorker@@QAEXPAV1@@Z @ 5023 NONAME
	 ?Reset@CEnumOleUndoUnit@@UAGJXZ @ 5024 NONAME
	 ?Reset@CErrorContext@@UAEXXZ @ 5025 NONAME
	 ?Reset@CShellAutomationState@@QAEXXZ @ 5026 NONAME
	 ?Reset@CStorageEC@@UAEXXZ @ 5027 NONAME
	 ?Reset@CSushiBar@@QAEXXZ @ 5028 NONAME
	 ?Reset@CTipFile@@UAEXXZ @ 5029 NONAME
	 ?Reset@CTipFileManager@@UAEXXZ @ 5030 NONAME
	 ?Reset@XEnumVariant@CEnumVariantObjs@@UAGJXZ @ 5031 NONAME
	 ?ResetAll@CTap@@QAEXXZ @ 5032 NONAME
	 ?ResetAllMenus@CMainFrame@@QAEXXZ @ 5033 NONAME
	 ?ResetBar@CToolbarDialog@@IAEXH@Z @ 5034 NONAME
	 ?ResetButtonImage@CCustomBar@@QAEXXZ @ 5035 NONAME
	 ?ResetButtonImage@CCustomBarProxy@@UAEXXZ @ 5036 NONAME
	 ?ResetButtonImage@CMenuPopupProxy@@UAEXXZ @ 5037 NONAME
	 ?ResetChord@CTap@@QAEXXZ @ 5038 NONAME
	 ?ResetCommandTarget@CIPCompFrameHook@@QAEHXZ @ 5039 NONAME
	 ?ResetContent@CPropListBox@@QAEXXZ @ 5040 NONAME
	 ?ResetContent@CStringListGridWnd@@QAEXXZ @ 5041 NONAME
	 ?ResetContent@CTabRow@@QAEXXZ @ 5042 NONAME
	 ?ResetCurrentDir@CAddFilesDialog@@SAXXZ @ 5043 NONAME
	 ?ResetDirMap@CPath@@SAXXZ @ 5044 NONAME
	 ?ResetIndicators@CSushiBar@@QAEXXZ @ 5045 NONAME
	 ?ResetItemHeight@CCheckList@@IAEXXZ @ 5046 NONAME
	 ?ResetMainKeymap@@YAXXZ @ 5047 NONAME
	 ?ResetMenu@CMainFrame@@QAEXI@Z @ 5048 NONAME
	 ?ResetMenu@CMainGroup@@QAEXIH@Z @ 5049 NONAME
	 ?ResetPropertyBrowserSelectionSlob@@YAXPAVCSlob@@@Z @ 5050 NONAME
	 ?ResetScrollBars@CGridWnd@@QAEXXZ @ 5051 NONAME
	 ?ResetSize@CGridCaption@@UAEXPAVCDC@@@Z @ 5052 NONAME
	 ?ResetSize@CGridCaptionCell@@UAEXPAVCDC@@@Z @ 5053 NONAME
	 ?ResetSize@CGridCell@@UAEXPAVCDC@@@Z @ 5054 NONAME
	 ?ResetSize@CGridCellRow@@UAEXPAVCDC@@@Z @ 5055 NONAME
	 ?ResetSize@CGridElement@@UAEXPAVCDC@@@Z @ 5056 NONAME
	 ?ResetSize@CGridWnd@@QAEXXZ @ 5057 NONAME
	 ?ResetSize@CHelpKeyGridRow@@UAEXPAVCDC@@@Z @ 5058 NONAME
	 ?ResetSize@CStringListGridRow@@UAEXPAVCDC@@@Z @ 5059 NONAME
	 ?ResetSizes@CTreeCtl@@QAEXPAVCDC@@@Z @ 5060 NONAME
	 ?ResetStatusBar@@YAXXZ @ 5061 NONAME
	 ?ResetSysBrushes@@YAXXZ @ 5062 NONAME
	 ?ResetTabs@CWidgetScrollBar@@QAEXXZ @ 5063 NONAME
	 ?ReSort@CGridWnd@@QAEXXZ @ 5064 NONAME
	 ?REStackOverflow@@YGXXZ @ 5065 NONAME
	 ?REStart@@YAPADPAUpatType@@@Z @ 5066 NONAME
	 ?RestoreDefaults@CFCDialogState@@QAEXXZ @ 5067 NONAME
	 ?RestoreFocus@CPaletteWnd@@IAEXXZ @ 5068 NONAME
	 ?RestoreFocus@CSheetWnd@@QAEHXZ @ 5069 NONAME
	 ?RestorePriority@CFileChange@@IAEXXZ @ 5070 NONAME
	 ?RETranslate@@YADPAUpatType@@PAD1@Z @ 5071 NONAME
	 ?RETranslateLength@@YAHPAUpatType@@PAD@Z @ 5072 NONAME
	 ?Retrieve@CSlobSequence@@QAEXPAEH@Z @ 5073 NONAME
	 ?RetrieveStr@CSlobSequence@@QAEXAAVCString@@@Z @ 5074 NONAME
	 ?Run@CTheApp@@UAEHXZ @ 5075 NONAME
	 ?RunFileExistsDlg@@YAHPBD@Z @ 5076 NONAME
	 ?SansFace@@YAPBDXZ @ 5077 NONAME
	 ?Save@CAutoDocumentDefault@@IAE?AW4DsSaveStatus@@ABUtagVARIANT@@0@Z @ 5078 NONAME
	 ?Save@CPartDoc@@IAE?AW4DsSaveStatus@@ABUtagVARIANT@@0@Z @ 5079 NONAME
	 ?Save@XGenericDocument@CAutoDocumentDefault@@EAGJUtagVARIANT@@0PAW4DsSaveStatus@@@Z @ 5080 NONAME
	 ?SaveAll@CAutoDocuments@@IAE?AW4DsSaveStatus@@ABUtagVARIANT@@@Z @ 5081 NONAME
	 ?SaveAll@CPartTemplate@@QAEHHI@Z @ 5082 NONAME
	 ?SaveAll@CTheApp@@QAEHHI@Z @ 5083 NONAME
	 ?SaveAll@XDocuments@CAutoDocuments@@EAGJUtagVARIANT@@PAW4DsSaveStatus@@@Z @ 5084 NONAME
	 ?SaveChanges@CShellAutomationState@@QAEXABUtagVARIANT@@@Z @ 5085 NONAME
	 ?SaveChanges@CShellAutomationState@@UAEHXZ @ 5086 NONAME
	 ?SaveData@CDockWorker@@QAEXXZ @ 5087 NONAME
	 ?SaveDockPos@CDockWorker@@QAEXH@Z @ 5088 NONAME
	 ?SaveDocumentHook@CDocObjectDoc@@UAEHPBDI@Z @ 5089 NONAME
	 ?SaveDocumentHook@CPartDoc@@MAEHPBDI@Z @ 5090 NONAME
	 ?SaveFindReplaceStrings@@YAXXZ @ 5091 NONAME
	 ?SaveFloatPos@CDockWorker@@QAEXXZ @ 5092 NONAME
	 ?SaveFocus@CPaletteWnd@@IAEXXZ @ 5093 NONAME
	 ?SaveFocus@CSheetWnd@@QAEHXZ @ 5094 NONAME
	 ?SaveLastProject@CTheApp@@QAEHXZ @ 5095 NONAME
	 ?SaveLayout@CMainFrame@@QAEXXZ @ 5096 NONAME
	 ?SaveManager@CMainFrame@@QAEHXZ @ 5097 NONAME
	 ?SaveMDIPos@CDockWorker@@QAEXXZ @ 5098 NONAME
	 ?SaveMenus@CCmdCache@@QAEXXZ @ 5099 NONAME
	 ?SaveModified@CPartDoc@@UAEHXZ @ 5100 NONAME
	 ?SaveObject@XMyOleClientSite@CIPCompContainerItem@@UAGJXZ @ 5101 NONAME
	 ?SavePrivateAutosaveSettings@CTheApp@@QAEXXZ @ 5102 NONAME
	 ?SavePrivateProfileSettings@CTheApp@@QAEXXZ @ 5103 NONAME
	 ?SavePromptResult@CShellAutomationState@@QAE?AW4DsSaveStatus@@XZ @ 5104 NONAME
	 ?SaveProperty@CPropEdit@@IAEHXZ @ 5105 NONAME
	 ?SavePropertyForAllControls@COleAllPage@@IAEJPAUtagVARIANT@@PAVCPropItem@@@Z @ 5106 NONAME
	 ?SaveSettings@CPackage@@UAEXXZ @ 5107 NONAME
	 ?SaveState@CTipFile@@UAEHXZ @ 5108 NONAME
	 ?SaveState@CTipFileManager@@UAEHXZ @ 5109 NONAME
	 ?SaveStretchSize@CDockWorker@@QAEXXZ @ 5110 NONAME
	 ?SaveSysColorBitmap@GLOBAL_DATA@@SAPAXPAUHBITMAP__@@@Z @ 5111 NONAME
	 ?SaveToExternalFile@CDocObjectContainerItem@@UAEHPBD@Z @ 5112 NONAME
	 ?SaveToolListSetting@@YAXXZ @ 5113 NONAME
	 ?SaveToReg@CFullScreenState@@QAEXPBD@Z @ 5114 NONAME
	 ?SaveToRegInt@@YAXPADHH@Z @ 5115 NONAME
	 ?SaveToRegistry@CFormatInfo@@QBEXXZ @ 5116 NONAME
	 ?SaveToRegistry@CPickList@@QAEXXZ @ 5117 NONAME
	 ?SaveToRegStr@@YAXPADHPBD@Z @ 5118 NONAME
	 ?SaveWorkers@CDockManager@@QAEXXZ @ 5119 NONAME
	 ?SaveWorkspace@CMainFrame@@QAEHAAVCArchive@@@Z @ 5120 NONAME
	 ?SaveWorkspaceWindow@CMainFrame@@QAEXAAVCArchive@@PAVCPartFrame@@H@Z @ 5121 NONAME
	 ?ScaleBitmap@GLOBAL_DATA@@SAHPAUHDC__@@VCSize@@VCPoint@@QAUHBITMAP__@@1@Z @ 5122 NONAME
	 ?ScaleBitmap@GLOBAL_DATA@@SAHPAVCWnd@@PAUHBITMAP__@@VCSize@@VCPoint@@QAU3@2@Z @ 5123 NONAME
	 ?ScanCommandCache@CAppToolGroups@@QAEHXZ @ 5124 NONAME
	 ?ScanCommandLine@CTheApp@@QAEHPBDPAVCString@@H@Z @ 5125 NONAME
	 ?ScanPathForSpecialCharacters@@YAHPBD@Z @ 5126 NONAME
	 ?Scroll@CTabRow@@QAEXH@Z @ 5127 NONAME
	 ?Scroll@CWidgetScrollBar@@QAEXH@Z @ 5128 NONAME
	 ?Scroll@XMyOleIPSite@CIPCompContainerItem@@UAGJUtagSIZE@@@Z @ 5129 NONAME
	 ?Scroll@XOleInPlaceSite@CDocObjectContainerItem@@UAGJUtagSIZE@@@Z @ 5130 NONAME
	 ?ScrollDown@CUndoList@@QAEXXZ @ 5131 NONAME
	 ?ScrollIntoView@CGridWnd@@QAEXPAVCGridRow@@@Z @ 5132 NONAME
	 ?ScrollIntoView@CTabRow@@QAEXH@Z @ 5133 NONAME
	 ?ScrollMenu@CBMenuPopup@@QAEXHH@Z @ 5134 NONAME
	 ?ScrollMenuBottom@CBMenuPopup@@QAEXXZ @ 5135 NONAME
	 ?ScrollMenuDown@CBMenuPopup@@QAEXXZ @ 5136 NONAME
	 ?ScrollMenuTop@CBMenuPopup@@QAEXXZ @ 5137 NONAME
	 ?ScrollMenuUp@CBMenuPopup@@QAEXXZ @ 5138 NONAME
	 ?ScrollUp@CUndoList@@QAEXXZ @ 5139 NONAME
	 ?SearchCallBack@CFormatInfo@@SGHPBUtagENUMLOGFONTA@@PBUtagNEWTEXTMETRICA@@HJ@Z @ 5140 NONAME
	 ?Select@CBMenuItem@@QAEXH@Z @ 5141 NONAME
	 ?Select@CGoToDialog@@QAEXH@Z @ 5142 NONAME
	 ?Select@CGoToDialog@@QAEXPBD@Z @ 5143 NONAME
	 ?Select@CGridWnd@@QAEXPAVCGridElement@@H@Z @ 5144 NONAME
	 ?Select@CSlobWnd@@QAEXPAVCSlob@@H@Z @ 5145 NONAME
	 ?SelectActiveChild@COpenDocsDlg@@AAEXXZ @ 5146 NONAME
	 ?SelectBetween@CGridWnd@@QAEXPAVCGridElement@@0@Z @ 5147 NONAME
	 ?SelectExpanded@CBMenuPopup@@QAEXXZ @ 5148 NONAME
	 ?SelectFirstItem@CBMenuPopup@@QAEXXZ @ 5149 NONAME
	 ?SelectionChange@CSheetWnd@@QAEXW4SELSTYLE@1@PAVCSlob@@H@Z @ 5150 NONAME
	 ?SelectLimitToList@CPropList@@QAEXPBD@Z @ 5151 NONAME
	 ?SelectNext@CPropList@@QAEXXZ @ 5152 NONAME
	 ?SelectNextItemInList@CPropList@@QAEXXZ @ 5153 NONAME
	 ?SelectNextTab@CTabbedDialog@@QAEXXZ @ 5154 NONAME
	 ?SelectPrev@CPropList@@QAEXXZ @ 5155 NONAME
	 ?SelectPreviousTab@CTabbedDialog@@QAEXXZ @ 5156 NONAME
	 ?SelectTab@CTabbedDialog@@QAEXABVCString@@H@Z @ 5157 NONAME
	 ?SelectTab@CTabbedDialog@@QAEXHH@Z @ 5158 NONAME
	 ?Send@CForwardMouseMessage@@QAEXPAUHWND__@@@Z @ 5159 NONAME
	 ?Serialize@?$CMap@IIPAV?$CTypedPtrArray@VCObArray@@PAVCPack@@@@AAPAV1@@@UAEXAAVCArchive@@@Z @ 5160 NONAME
	 ?Serialize@?$CMap@IIPAVCBMenuPopup@@AAPAV1@@@UAEXAAVCArchive@@@Z @ 5161 NONAME
	 ?Serialize@CDockManager@@MAEXAAVCArchive@@@Z @ 5162 NONAME
	 ?Serialize@CDockWnd@@MAEXAAVCArchive@@@Z @ 5163 NONAME
	 ?Serialize@CDockWorker@@MAEXAAVCArchive@@@Z @ 5164 NONAME
	 ?Serialize@CDocObjectDoc@@UAEXAAVCArchive@@@Z @ 5165 NONAME
	 ?Serialize@CIPCompDoc@@UAEXAAVCArchive@@@Z @ 5166 NONAME
	 ?Serialize@CObject@@UAEXAAVCArchive@@@Z @ 5167 NONAME
	 ?Serialize@CPartDoc@@UAEXAAVCArchive@@@Z @ 5168 NONAME
	 ?Serialize@CPropBag@@QAEXAAVCArchive@@PAVCSlob@@@Z @ 5169 NONAME
	 ?Serialize@CSlob@@UAEXAAVCArchive@@@Z @ 5170 NONAME
	 ?SerializeAllWorkspaceSettings@CTheApp@@QAEHPBVCPath@@KH@Z @ 5171 NONAME
	 ?SerializeElements@@YGXAAVCArchive@@PAIH@Z @ 5172 NONAME
	 ?SerializeElements@@YGXAAVCArchive@@PAPAV?$CTypedPtrArray@VCObArray@@PAVCPack@@@@H@Z @ 5173 NONAME
	 ?SerializeElements@@YGXAAVCArchive@@PAPAVCBMenuPopup@@H@Z @ 5174 NONAME
	 ?SerializePropMap@CSlob@@QAEXAAVCArchive@@@Z @ 5175 NONAME
	 ?SerializePropMapFilter@CSlob@@UAEHH@Z @ 5176 NONAME
	 ?SerializeWkspcConvSettings@CPackage@@UAEXAAVCStateSaver@@K@Z @ 5177 NONAME
	 ?SerializeWorkspaceLayout@CMainFrame@@QAEHAAVCStateSaver@@@Z @ 5178 NONAME
	 ?SerializeWorkspaceSettings@CPackage@@UAEXAAVCStateSaver@@K@Z @ 5179 NONAME
	 ?SerifFace@@YAPBDXZ @ 5180 NONAME
	 ?Set@CFmtGroupIterator@@QAEXPAUFMT_WINGROUP@@@Z @ 5181 NONAME
	 ?Set@CFmtWindowIterator@@QAEXPAUFMT_WINDOW@@@Z @ 5182 NONAME
	 ?SetAccel@CTap@@QAEXAAUtagACCEL@@@Z @ 5183 NONAME
	 ?SetAccelerator@CBMenuItem@@QAEXPBDH@Z @ 5184 NONAME
	 ?SetActive@CApplication@@QAEXH@Z @ 5185 NONAME
	 ?SetActive@CAutoDocumentDefault@@IAEXH@Z @ 5186 NONAME
	 ?SetActive@CAutoWindowDefault@@IAEXH@Z @ 5187 NONAME
	 ?SetActive@CPartDoc@@IAEXH@Z @ 5188 NONAME
	 ?SetActive@CPartFrame@@QAEXH@Z @ 5189 NONAME
	 ?SetActive@CSheetWnd@@QAEXH@Z @ 5190 NONAME
	 ?SetActiveConfiguration@CApplication@@QAEXPAUIDispatch@@@Z @ 5191 NONAME
	 ?SetActiveElement@CGridWnd@@QAEXPAVCGridElement@@H@Z @ 5192 NONAME
	 ?SetActivePacket@CTheApp@@QAEXPAVCPacket@@@Z @ 5193 NONAME
	 ?SetActiveProject@CApplication@@QAEXPAUIDispatch@@@Z @ 5194 NONAME
	 ?SetActiveTab@CTabRow@@QAEHABVCString@@@Z @ 5195 NONAME
	 ?SetActiveTab@CTabRow@@QAEHH@Z @ 5196 NONAME
	 ?SetActiveUI@XOleIPCompUIMgr@CIPCompFrameHook@@UAGJKABU_GUID@@KPAJ@Z @ 5197 NONAME
	 ?SetActiveView@CTheApp@@QAEXPAUHWND__@@@Z @ 5198 NONAME
	 ?SetActualCase@CPath@@QAEXPBD@Z @ 5199 NONAME
	 ?SetAddInInfo@CApplication@@QAEXJPAUIDispatch@@JJJ@Z @ 5200 NONAME
	 ?SetAddInInfo@XApplication@CApplication@@EAGJJPAUIDispatch@@JJJ@Z @ 5201 NONAME
	 ?SetAppropriateLocation@CNewProjectDialogTab@@UAEXXZ @ 5202 NONAME
	 ?SetAppWizHwnd@CTheApp@@QAEXPAUHWND__@@@Z @ 5203 NONAME
	 ?SetBackColor@CFCDialogState@@QAEXK@Z @ 5204 NONAME
	 ?SetBackColor@CFormatInfo@@AAEXIIIK@Z @ 5205 NONAME
	 ?SetBitmap@CCustomBar@@QAEXPAUHBITMAP__@@H@Z @ 5206 NONAME
	 ?SetBitmap@CImageWell@@QAEXPAVCBitmap@@VCSize@@@Z @ 5207 NONAME
	 ?SetBtnDimensions@CPropButton@@QAEXXZ @ 5208 NONAME
	 ?SetBuffer@CFileOpenReturn@@AAEXPBD@Z @ 5209 NONAME
	 ?SetBuffer@CInitFile@@QAEXPAXIW4INIT_DATATYPE@1@@Z @ 5210 NONAME
	 ?SetButtonControl@CCustomBarProxy@@UAEXHPAUHWND__@@@Z @ 5211 NONAME
	 ?SetButtonControl@CMenuPopupProxy@@UAEXHPAUHWND__@@@Z @ 5212 NONAME
	 ?SetButtonInfo@COldToolBar@@QAEXHIIH@Z @ 5213 NONAME
	 ?SetButtons@CCustomBar@@QAEHPBIH@Z @ 5214 NONAME
	 ?SetButtons@COldToolBar@@QAEHPBIH@Z @ 5215 NONAME
	 ?SetButtonSize@CASBar@@QAEHH@Z @ 5216 NONAME
	 ?SetButtonSize@CDropControl@@IAEXH@Z @ 5217 NONAME
	 ?SetButtonStyle@CGoToDialog@@QAEXW4BUTTON_STYLE@1@@Z @ 5218 NONAME
	 ?SetButtonStyle@COldToolBar@@QAEXHI@Z @ 5219 NONAME
	 ?SetCaption@CSheetWnd@@QAEXPBD@Z @ 5220 NONAME
	 ?SetCaptionFont@CGridWnd@@QAEXPAVCFont@@H@Z @ 5221 NONAME
	 ?SetCapture@CGridElement@@QAEXXZ @ 5222 NONAME
	 ?SetCATID@CBldWizSelectDlg@@QAEHPAUHKEY__@@@Z @ 5223 NONAME
	 ?SetCheck@CBMenuItemCmdUI@@UAEXH@Z @ 5224 NONAME
	 ?SetCheck@CCheckList@@UAEXHH@Z @ 5225 NONAME
	 ?SetCheck@CCmdUIEnable@@UAEXH@Z @ 5226 NONAME
	 ?SetCheck@CCustomToolCmdUI@@UAEXH@Z @ 5227 NONAME
	 ?SetCheck@COldStatusCmdUI@@UAEXH@Z @ 5228 NONAME
	 ?SetCheck@COldToolCmdUI@@UAEXH@Z @ 5229 NONAME
	 ?SetCheck@CPropCheckList@@MAEXHH@Z @ 5230 NONAME
	 ?SetCheck@CTestUI@@UAEXH@Z @ 5231 NONAME
	 ?SetCheck@CTestUI2@@UAEXH@Z @ 5232 NONAME
	 ?SetCheck@CToolbarCheckList@@UAEXHH@Z @ 5233 NONAME
	 ?SetCheck@CWorkspaceCheckList@@UAEXHH@Z @ 5234 NONAME
	 ?SetChecked@CToggleBitmapButton@@QAEXH@Z @ 5235 NONAME
	 ?SetChildID@CMDIChildDock@@IAEXPAVCWnd@@I@Z @ 5236 NONAME
	 ?SetChord@CTap@@QAEXAAUtagACCEL@@@Z @ 5237 NONAME
	 ?SetColor@CGridWnd@@QAEXKKKK@Z @ 5238 NONAME
	 ?SetColumnCaption@CGridWnd@@QAEXHPBD@Z @ 5239 NONAME
	 ?SetColumnWidth@CGridWnd@@QAEXHH@Z @ 5240 NONAME
	 ?SetCommandUIFlags@CPackage@@QAEXIIHI@Z @ 5241 NONAME
	 ?SetComponentManager@CIPCompMainFrame@@QAEHPAUIMsoComponentManager@@@Z @ 5242 NONAME
	 ?SetComponentManager@CMainFrame@@QAEHPAUIMsoComponentManager@@@Z @ 5243 NONAME
	 ?SetContainerInfo@CPartTemplate@@QAEXXZ @ 5244 NONAME
	 ?SetContextHelpID@CTreeCtl@@UAEXK@Z @ 5245 NONAME
	 ?SetControlStyle@CGoToDialog@@QAEXW4CONTROL_STYLE@1@@Z @ 5246 NONAME
	 ?SetCurColor@CColorCombo@@QAEHK@Z @ 5247 NONAME
	 ?SetCurrentDirectoryA@CApplication@@QAEXPBD@Z @ 5248 NONAME
	 ?SetCurrentElement@CFCDialogState@@QAEXH@Z @ 5249 NONAME
	 ?SetCurrentFont@CFCDialogState@@QAEXABVCString@@HH@Z @ 5250 NONAME
	 ?SetCurrentFontSize@CFCDialogState@@QAEXH@Z @ 5251 NONAME
	 ?SetCurrentWindow@CFCDialogState@@QAEXH@Z @ 5252 NONAME
	 ?SetCurSel@CStringListGridWnd@@QAEHH@Z @ 5253 NONAME
	 ?SetCustomizer@CChoiceBar@@QAEXPAVCToolCustomizer@@@Z @ 5254 NONAME
	 ?SetData@CBMenuPopup@@QAEHPAX@Z @ 5255 NONAME
	 ?SetData@CToolBarProxy@@QAEHPAX@Z @ 5256 NONAME
	 ?SetData@CTreeCtl@@QAEXHK@Z @ 5257 NONAME
	 ?SetDefault@CBMenuItem@@QAEXH@Z @ 5258 NONAME
	 ?SetDefaultPage@CSheetWnd@@QAEXXZ @ 5259 NONAME
	 ?SetDefaultSizes@CCustomBar@@QAEXH@Z @ 5260 NONAME
	 ?SetDefaultSizes@COldToolBar@@QAEXXZ @ 5261 NONAME
	 ?SetDefButtonIndex@CTabbedDialog@@IAEXH@Z @ 5262 NONAME
	 ?SetDescriptionText@CCustomDialog@@QAEXI@Z @ 5263 NONAME
	 ?SetDialogPos@CPartView@@UAEHHPAUHWND__@@@Z @ 5264 NONAME
	 ?SetDispid@CPropItem@@QAEXKJ@Z @ 5265 NONAME
	 ?SetDockState@CMainFrame@@QAEXHH@Z @ 5266 NONAME
	 ?SetDocLong@CPartDoc@@UAEJHJ@Z @ 5267 NONAME
	 ?SetDocString@CPartDoc@@MAEXI@Z @ 5268 NONAME
	 ?SetDoubleProp@CMultiSlob@@UAEHIN@Z @ 5269 NONAME
	 ?SetDoubleProp@CSlob@@UAEHIN@Z @ 5270 NONAME
	 ?SetDriveAndDir@@YAHPBD@Z @ 5271 NONAME
	 ?SetEditFocus@CSheetWnd@@QAEPAVCWnd@@I@Z @ 5272 NONAME
	 ?SetEmptyToolTip@CTheApp@@SAXPAUtagNMHDR@@@Z @ 5273 NONAME
	 ?SetError@CShellAutomationState@@UAEXJ@Z @ 5274 NONAME
	 ?SetEscIsAltPrefix@CKeymap@@SAXH@Z @ 5275 NONAME
	 ?SetExtHelp@@YAHH@Z @ 5276 NONAME
	 ?SetFileError@@YAXH@Z @ 5277 NONAME
	 ?SetFileError@CShellAutomationState@@UAEXH@Z @ 5278 NONAME
	 ?SetFileFilters@@YAXAAVCString@@AAUtagOFNA@@HPAIHPBD@Z @ 5279 NONAME
	 ?SetFilePath@CFile@@UAEXPBD@Z @ 5280 NONAME
	 ?SetFindFocus@@YAXXZ @ 5281 NONAME
	 ?SetFindFocus@CFindCombo@@SAXXZ @ 5282 NONAME
	 ?SetFirstTab@CTabRow@@AAEXH@Z @ 5283 NONAME
	 ?SetFocusAndCurSel@CPropListBox@@IAEXXZ @ 5284 NONAME
	 ?SetFocusToControl@CTabbedDialog@@IAEXPAVCWnd@@PAVCObList@@H@Z @ 5285 NONAME
	 ?SetFont@CGridWnd@@QAEXPAVCFont@@H@Z @ 5286 NONAME
	 ?SetFont@CIME@@QAEXPAVCWnd@@PAUHFONT__@@@Z @ 5287 NONAME
	 ?SetForeColor@CFCDialogState@@QAEXK@Z @ 5288 NONAME
	 ?SetForeColor@CFormatInfo@@AAEXIIIK@Z @ 5289 NONAME
	 ?SetGlobalWorkspaceInfoText@CPackage@@UAEXPBD@Z @ 5290 NONAME
	 ?SetGlyph@CBMenuItem@@IAEXPAUHBITMAP__@@HHH@Z @ 5291 NONAME
	 ?SetGlyphSize@CStringListGridWnd@@QAEXJJ@Z @ 5292 NONAME
	 ?SetHeaderInfo@COleAllPage@@QAEXXZ @ 5293 NONAME
	 ?SetHeight@CApplication@@QAEXJ@Z @ 5294 NONAME
	 ?SetHeight@CAutoWindowDefault@@IAEXJ@Z @ 5295 NONAME
	 ?SetHeight@COldToolBar@@QAEXH@Z @ 5296 NONAME
	 ?SetHeight@CPartFrame@@QAEXJ@Z @ 5297 NONAME
	 ?SetHelperText@CGoToDialog@@QAEXPBD@Z @ 5298 NONAME
	 ?SetHKEY@CRegLite@@QAEHPAUHKEY__@@@Z @ 5299 NONAME
	 ?SetIcon@CIconList@@UAEXHPAUHICON__@@@Z @ 5300 NONAME
	 ?SetIcon@CProjTypeIconList@@UAEXHPAUHICON__@@@Z @ 5301 NONAME
	 ?SetIdleMode@CFileChange@@QAEIH@Z @ 5302 NONAME
	 ?SetIdlePrompt@@YAXIH@Z @ 5303 NONAME
	 ?SetIdlePrompt@@YAXPBDH@Z @ 5304 NONAME
	 ?SetIdlePrompt@CSushiBar@@QAEXPBD@Z @ 5305 NONAME
	 ?SetIndicators@COldStatusBar@@QAEHPBIH@Z @ 5306 NONAME
	 ?SetIndicators@CSushiBar@@QAEHPBIHPBUtagSTATINFO@@H@Z @ 5307 NONAME
	 ?SetIndicators@CSushiBar@@QAEHPBVCSushiBarInfo@@@Z @ 5308 NONAME
	 ?SetInitData@CPartFrame@@SAXPAE@Z @ 5309 NONAME
	 ?SetInPlaceComponent@CIPCompFrameHook@@QAEJPAUIUnknown@@@Z @ 5310 NONAME
	 ?SetIntProp@CMultiSlob@@UAEHIH@Z @ 5311 NONAME
	 ?SetIntProp@CPropBag@@QAEXPAVCSlob@@IH@Z @ 5312 NONAME
	 ?SetIntProp@CSlob@@UAEHIH@Z @ 5313 NONAME
	 ?SetIPCComboEditText@CIPCompDoc@@IAEXPAVCComboBox@@PAU_GUID@@KK@Z @ 5314 NONAME
	 ?SetIPCComboEditText@CIPCompFrameHook@@QAEXPAVCComboBox@@PAU_GUID@@KK@Z @ 5315 NONAME
	 ?SetItemData@CStringListGridWnd@@QAEHHK@Z @ 5316 NONAME
	 ?SetItemDataPtr@CProjTypeList@@QAEXHPAX@Z @ 5317 NONAME
	 ?SetItemDataPtr@CStringListGridWnd@@QAEHHPAX@Z @ 5318 NONAME
	 ?SetItemEnabled@CGoToDialog@@QAEXPAVCGoToItem@@H@Z @ 5319 NONAME
	 ?SetItemGlyph@CStringListGridWnd@@QAEHHH@Z @ 5320 NONAME
	 ?SetKey@CKeymap@@QAEXGGI@Z @ 5321 NONAME
	 ?SetKey@CKeymap@@QAEXGI@Z @ 5322 NONAME
	 ?SetKey@CKeymap@@QAEXGPAV1@@Z @ 5323 NONAME
	 ?SetLabel@TBBUTTON_EXTRA@@QAEXABVCString@@@Z @ 5324 NONAME
	 ?SetLeft@CApplication@@QAEXJ@Z @ 5325 NONAME
	 ?SetLeft@CAutoWindowDefault@@IAEXJ@Z @ 5326 NONAME
	 ?SetLeft@CPartFrame@@QAEXJ@Z @ 5327 NONAME
	 ?SetLinear@CFmtElementIterator@@QAEXI@Z @ 5328 NONAME
	 ?SetLinear@CFmtGroupIterator@@QAEXI@Z @ 5329 NONAME
	 ?SetLinear@CFmtWindowIterator@@QAEXI@Z @ 5330 NONAME
	 ?SetLineColumn@CSushiBar@@QAEXHHH@Z @ 5331 NONAME
	 ?SetListCtrlStyle@@YAXPAVCListCtrl@@J@Z @ 5332 NONAME
	 ?SetLongProp@CMultiSlob@@UAEHIJ@Z @ 5333 NONAME
	 ?SetLongProp@CSlob@@UAEHIJ@Z @ 5334 NONAME
	 ?SetMacRec@CShellRecorder@@MAEXPAUIMacroRecorder@@@Z @ 5335 NONAME
	 ?SetMaxLevels@CUndoSlob@@QAEXH@Z @ 5336 NONAME
	 ?SetMDIState@CDockWorker@@QAEXH@Z @ 5337 NONAME
	 ?SetMenu@CCmdCache@@QAEXIPAVCBMenuPopup@@@Z @ 5338 NONAME
	 ?SetModeName@@YAXI@Z @ 5339 NONAME
	 ?SetModeName@@YAXPBD@Z @ 5340 NONAME
	 ?SetModifiedFlag@CPartDoc@@UAEXH@Z @ 5341 NONAME
	 ?SetMustExist@CDirChooser@@QAEXH@Z @ 5342 NONAME
	 ?SetOffsetExtent@CSushiBar@@QAEXJJ@Z @ 5343 NONAME
	 ?SetOkButtonText@C3dFileDialog@@QAEXI@Z @ 5344 NONAME
	 ?SetOverStrike@CSushiBar@@QAEXH@Z @ 5345 NONAME
	 ?SetPaneInfo@COldStatusBar@@QAEXHIIH@Z @ 5346 NONAME
	 ?SetPaneStyle@COldStatusBar@@QAEXHI@Z @ 5347 NONAME
	 ?SetPaneText@COldStatusBar@@QAEHHPBDH@Z @ 5348 NONAME
	 ?SetPictureToNone@COleAllPage@@QAEJPAVCPropItem@@@Z @ 5349 NONAME
	 ?SetPointProp@CMultiSlob@@UAEHIABVCPoint@@@Z @ 5350 NONAME
	 ?SetPointProp@CSlob@@UAEHIABVCPoint@@@Z @ 5351 NONAME
	 ?SetPopup@CMenuBtn@@QAEXPAUPOPDESC@@@Z @ 5352 NONAME
	 ?SetPos@CContextPopupMenu@@QAEXH@Z @ 5353 NONAME
	 ?SetPos@CMenuBtn@@QAEXH@Z @ 5354 NONAME
	 ?SetPos@CTabRow@@QAEXVCRect@@@Z @ 5355 NONAME
	 ?SetPosition@CSushiBar@@QAEXABVCPoint@@@Z @ 5356 NONAME
	 ?SetProjectWorkspaceInfoText@CPackage@@UAEXPBD0@Z @ 5357 NONAME
	 ?SetPrompt@@YAXIHKK@Z @ 5358 NONAME
	 ?SetPrompt@@YAXPBDHKK@Z @ 5359 NONAME
	 ?SetPrompt@CGoToDialog@@QAEXPBD@Z @ 5360 NONAME
	 ?SetPrompt@CSushiBar@@QAEXPBDH@Z @ 5361 NONAME
	 ?SetPromptColor@CSushiBar@@QAEXKK@Z @ 5362 NONAME
	 ?SetPromptState@CShellAutomationState@@QAEXABUtagVARIANT@@@Z @ 5363 NONAME
	 ?SetPromptUntilIdle@@YAXPBDKK@Z @ 5364 NONAME
	 ?SetPromptUntilIdle@CSushiBar@@QAEXPBD@Z @ 5365 NONAME
	 ?SetPropertyBrowserDefPage@@YAXXZ @ 5366 NONAME
	 ?SetPropertyBrowserSelection@@YAXPAVCSlob@@HW4SELSTYLE@CSheetWnd@@@Z @ 5367 NONAME
	 ?SetPropertyBrowserVisible@@YAXH@Z @ 5368 NONAME
	 ?SetPropertyCaption@@YAXPBD@Z @ 5369 NONAME
	 ?SetPushPin@CFloatingFrameWnd@@QAEXH@Z @ 5370 NONAME
	 ?SetPushPin@CPropFrameToolBar@@QAEXH@Z @ 5371 NONAME
	 ?SetPushPin@CSheetWnd@@QAEXH@Z @ 5372 NONAME
	 ?SetRadio@CBMenuItemCmdUI@@UAEXH@Z @ 5373 NONAME
	 ?SetRadio@CCmdUIEnable@@UAEXH@Z @ 5374 NONAME
	 ?SetRadio@CTestUI@@UAEXH@Z @ 5375 NONAME
	 ?SetRadio@CTestUI2@@UAEXH@Z @ 5376 NONAME
	 ?SetReadOnly@CAutoDocumentDefault@@IAEXH@Z @ 5377 NONAME
	 ?SetReadOnly@CPartDoc@@UAEXH@Z @ 5378 NONAME
	 ?SetReadOnlyOnDisk@CPartDoc@@UAEXH@Z @ 5379 NONAME
	 ?SetRecentFileListSize@CTheApp@@QAEXH@Z @ 5380 NONAME
	 ?SetRecentProjectListSize@CTheApp@@QAEXH@Z @ 5381 NONAME
	 ?SetRectProp@CMultiSlob@@UAEHIABVCRect@@@Z @ 5382 NONAME
	 ?SetRectProp@CSlob@@UAEHIABVCRect@@@Z @ 5383 NONAME
	 ?SetRedraw@CStringListGridWnd@@QAEXH@Z @ 5384 NONAME
	 ?SetRegExprSyntax@@YAHW4reSyntax@@@Z @ 5385 NONAME
	 ?SetSaved@CAutoDocumentDefault@@IAEXH@Z @ 5386 NONAME
	 ?SetSaved@CPartDoc@@IAEXH@Z @ 5387 NONAME
	 ?SetSavePromptCanceled@CShellAutomationState@@UAEXXZ @ 5388 NONAME
	 ?SetScrollingPrompt@@YAXPBDHKK@Z @ 5389 NONAME
	 ?SetSel@CEdit@@QAEXKH@Z @ 5390 NONAME
	 ?SetSel@CStringListGridWnd@@QAEHHH@Z @ 5391 NONAME
	 ?SetSel@CUndoList@@QAEXH@Z @ 5392 NONAME
	 ?SetSelection@CToolCustomizer@@QAEXPAVCToolBarProxy@@H@Z @ 5393 NONAME
	 ?SetShortCount@CBRecentFileList@@UAEXH@Z @ 5394 NONAME
	 ?SetShouldRecordText@XRecordNotifyShell@CVshellPackage@@UAGJH@Z @ 5395 NONAME
	 ?SetShowAllPage@COlePage@@SAXH@Z @ 5396 NONAME
	 ?SetSize@CBRecentFileList@@UAEXH@Z @ 5397 NONAME
	 ?SetSize@CSushiBar@@QAEXABVCSize@@@Z @ 5398 NONAME
	 ?SetSize@CTypedRecentFileList@@UAEXH@Z @ 5399 NONAME
	 ?SetSizes@CGridToolBar@@QAEXXZ @ 5400 NONAME
	 ?SetSizes@COldToolBar@@QAEXUtagSIZE@@0@Z @ 5401 NONAME
	 ?SetSizes@CPropFrameToolBar@@QAEXXZ @ 5402 NONAME
	 ?SetSlobProp@CAppSlob@@UAEHIPAVCSlob@@@Z @ 5403 NONAME
	 ?SetSlobProp@CMultiSlob@@UAEHIPAVCSlob@@@Z @ 5404 NONAME
	 ?SetSlobProp@CSlob@@UAEHIPAV1@@Z @ 5405 NONAME
	 ?SetSplitterPos@CWidgetScrollBar@@QAEXH@Z @ 5406 NONAME
	 ?SetStandardColors@CColorCombo@@QAEXXZ @ 5407 NONAME
	 ?SetStandardSizes@CSizeCombo@@QAEXXZ @ 5408 NONAME
	 ?SetStart@CBRecentFileList@@UAEXH@Z @ 5409 NONAME
	 ?SetState@CDropControl@@QAEXH@Z @ 5410 NONAME
	 ?SetStatus@XOleCompUIMgr@CIPCompFrameHook@@UAGJPBGK@Z @ 5411 NONAME
	 ?SetStatusBarLineColumn@@YAXHHH@Z @ 5412 NONAME
	 ?SetStatusBarOffsetExtent@@YAXJJ@Z @ 5413 NONAME
	 ?SetStatusBarOverStrike@@YAXH@Z @ 5414 NONAME
	 ?SetStatusBarPosition@@YAXABVCPoint@@@Z @ 5415 NONAME
	 ?SetStatusBarPositionAndSize@@YAXABVCRect@@@Z @ 5416 NONAME
	 ?SetStatusBarSize@@YAXABVCSize@@@Z @ 5417 NONAME
	 ?SetStatusBarZoom@@YAXH@Z @ 5418 NONAME
	 ?SetStdFont@@YAXAAVC3dDialogTemplate@@@Z @ 5419 NONAME
	 ?SetStrProp@CMultiSlob@@UAEHIABVCString@@@Z @ 5420 NONAME
	 ?SetStrProp@CPropBag@@QAEXPAVCSlob@@IAAVCString@@@Z @ 5421 NONAME
	 ?SetStrProp@CSlob@@UAEHIABVCString@@@Z @ 5422 NONAME
	 ?SetSubTitle@@YAXPBD@Z @ 5423 NONAME
	 ?SetSystemClick@CBMenuPopup@@SAXHVCPoint@@@Z @ 5424 NONAME
	 ?SetText@CBMenuItem@@QAEXPBD@Z @ 5425 NONAME
	 ?SetText@CBMenuItemCmdUI@@UAEXPBD@Z @ 5426 NONAME
	 ?SetText@CCmdUIEnable@@UAEXPBD@Z @ 5427 NONAME
	 ?SetText@CCustomToolCmdUI@@UAEXPBD@Z @ 5428 NONAME
	 ?SetText@CDockWorker@@QAEXABVCString@@@Z @ 5429 NONAME
	 ?SetText@CGridCell@@UAEXPBD@Z @ 5430 NONAME
	 ?SetText@COldStatusCmdUI@@UAEXPBD@Z @ 5431 NONAME
	 ?SetText@COldToolCmdUI@@UAEXPBD@Z @ 5432 NONAME
	 ?SetText@CStringListGridWnd@@QAEHHPBD@Z @ 5433 NONAME
	 ?SetText@CTestUI@@UAEXPBD@Z @ 5434 NONAME
	 ?SetText@CTestUI2@@UAEXPBD@Z @ 5435 NONAME
	 ?SetTip@CTipCtrl@@QAEXABVCString@@@Z @ 5436 NONAME
	 ?SetTop@CApplication@@QAEXJ@Z @ 5437 NONAME
	 ?SetTop@CAutoWindowDefault@@IAEXJ@Z @ 5438 NONAME
	 ?SetTop@CPartFrame@@QAEXJ@Z @ 5439 NONAME
	 ?SetToSize@CSizeCombo@@QAEHHH@Z @ 5440 NONAME
	 ?SetTreeCtrl@CTreeLite@@QAEHPAUHWND__@@H@Z @ 5441 NONAME
	 ?SetUIMode@XOleIPComponentSite@CIPCompContainerItem@@UAGJK@Z @ 5442 NONAME
	 ?SetUndoDesc@COleParentUndoUnit@@UAEXPBD@Z @ 5443 NONAME
	 ?SetUndoStringMgr@CIPCompDoc@@QAEHPAUIPropertyPageUndoString@@@Z @ 5444 NONAME
	 ?SetUndoStringMgr@CIPCompSlob@@UAEHPAUIPropertyPageUndoString@@@Z @ 5445 NONAME
	 ?SetUnusedServers@COlePage@@SAXH@Z @ 5446 NONAME
	 ?SetupPage@C3dPropertyPage@@UAEHPAVCSheetWnd@@PAVCSlob@@@Z @ 5447 NONAME
	 ?SetupPropertyPages@CIPCompSlob@@UAEHPAVCSlob@@H@Z @ 5448 NONAME
	 ?SetupPropertyPages@CMultiSlob@@UAEHPAVCSlob@@H@Z @ 5449 NONAME
	 ?SetupPropertyPages@CSheetWnd@@QAEHXZ @ 5450 NONAME
	 ?SetupPropertyPages@CSlob@@UAEHPAV1@H@Z @ 5451 NONAME
	 ?SetValidator@CFileFindDlg@@QAEXP6AHPBD0J@ZJ@Z @ 5452 NONAME
	 ?SetVariables@CEnvironmentVariableList@@UAEXH@Z @ 5453 NONAME
	 ?SetVisible@CApplication@@QAEXH@Z @ 5454 NONAME
	 ?SetVisibleMenuItem@CPackage@@QAEXIH@Z @ 5455 NONAME
	 ?SetWidth@CApplication@@QAEXJ@Z @ 5456 NONAME
	 ?SetWidth@CAutoWindowDefault@@IAEXJ@Z @ 5457 NONAME
	 ?SetWidth@CPartFrame@@QAEXJ@Z @ 5458 NONAME
	 ?SetWindowState@CApplication@@QAEXW4DsWindowState@@@Z @ 5459 NONAME
	 ?SetWindowState@CAutoWindowDefault@@IAEXW4DsWindowState@@@Z @ 5460 NONAME
	 ?SetWindowState@CPartFrame@@QAEXW4DsWindowState@@@Z @ 5461 NONAME
	 ?SetWorkingSetSize@@YAHKK@Z @ 5462 NONAME
	 ?SetZoom@CSushiBar@@QAEXH@Z @ 5463 NONAME
	 ?ShellPickList@@YAAAVCPickList@@XZ @ 5464 NONAME
	 ?ShiftImage@CCustomBar@@QAEHHHPAUTRANSFER_TBBUTTON@@@Z @ 5465 NONAME
	 ?ShouldExpand@CDefProvidedNode@@UAEHXZ @ 5466 NONAME
	 ?ShouldExtrude@CCustomBar@@MAEHH@Z @ 5467 NONAME
	 ?ShouldExtrude@COldToolBar@@MAEHH@Z @ 5468 NONAME
	 ?ShouldExtrude@CTheApp@@QAEHXZ @ 5469 NONAME
	 ?ShouldRegisterTypeLibsOnStartup@@YAHHAAH@Z @ 5470 NONAME
	 ?Show@CBMenuItem@@QAEHH@Z @ 5471 NONAME
	 ?ShowCommandUI@CPackage@@QAEXIH@Z @ 5472 NONAME
	 ?ShowContextMenu@XOleCompUIMgr@CIPCompFrameHook@@UAGJKABU_GUID@@JAAUtagPOINTS@@PAUIOleCommandTarget@@@Z @ 5473 NONAME
	 ?ShowContextPopupMenu@@YAXPAUPOPDESC@@VCPoint@@@Z @ 5474 NONAME
	 ?ShowContextPopupMenu@CIPCompDoc@@UAEXVCPoint@@@Z @ 5475 NONAME
	 ?ShowContextPopupMenu@CIPCompView@@UAEXVCPoint@@@Z @ 5476 NONAME
	 ?ShowContextPopupMenu@CSlobWnd@@UAEXVCPoint@@@Z @ 5477 NONAME
	 ?ShowEditControl@CPropListBox@@QAEXXZ @ 5478 NONAME
	 ?ShowErrorForInterface@@YAXABU_GUID@@PAUIUnknown@@J@Z @ 5479 NONAME
	 ?ShowExtHelp@@YAHXZ @ 5480 NONAME
	 ?ShowHelp@XOleCompUIMgr@CIPCompFrameHook@@UAGJKABU_GUID@@UtagPOINT@@KPAGK@Z @ 5481 NONAME
	 ?ShowIPCHelp@CIPCompDoc@@UAEJKABU_GUID@@UtagPOINT@@KPAGK@Z @ 5482 NONAME
	 ?ShowList@CDropControl@@QAEXH@Z @ 5483 NONAME
	 ?ShowList@CUndoList@@QAEXHVCRect@@PAVCDropControl@@@Z @ 5484 NONAME
	 ?ShowManager@CDockManager@@QAEXHW4UPDATE_SHOW@@H@Z @ 5485 NONAME
	 ?ShowMenu@CDockManager@@QAEXVCPoint@@@Z @ 5486 NONAME
	 ?ShowMenu@CMenuBtn@@QAEXAAVCBContextPopupMenu@@@Z @ 5487 NONAME
	 ?ShowMenu@CMenuBtn@@QAEXAAVCContextPopupMenu@@@Z @ 5488 NONAME
	 ?ShowMenu@CMenuBtn@@QAEXXZ @ 5489 NONAME
	 ?ShowMenuItem@CBMenuPopup@@QAEIII@Z @ 5490 NONAME
	 ?ShowMessage@XOleCompUIMgr@CIPCompFrameHook@@UAGJKABU_GUID@@PAG11KW4OLEMSGBUTTON@@W4OLEMSGDEFBUTTON@@W4OLEMSGICON@@HPAJ@Z @ 5491 NONAME
	 ?ShowObject@XMyOleClientSite@CIPCompContainerItem@@UAGJXZ @ 5492 NONAME
	 ?ShowPage@C3dPropertyPage@@UAEHH@Z @ 5493 NONAME
	 ?ShowPage@COlePage@@UAEHH@Z @ 5494 NONAME
	 ?ShowPalettes@CDockManager@@QAEXHH@Z @ 5495 NONAME
	 ?ShowPropertyBrowser@@YAXH@Z @ 5496 NONAME
	 ?ShowSelection@CGridWnd@@QAEXH@Z @ 5497 NONAME
	 ?ShowSplashScreen@@YAXH@Z @ 5498 NONAME
	 ?ShowSplashScreen@CTheApp@@UAEXH@Z @ 5499 NONAME
	 ?ShowSprites@CSlobWnd@@UAEXH@Z @ 5500 NONAME
	 ?ShowStatusBar@@YAXH@Z @ 5501 NONAME
	 ?ShowSubPopup@CBMenuPopup@@QAEXH@Z @ 5502 NONAME
	 ?ShowToolInfo@CCustomizeToolsDialog@@QAEXXZ @ 5503 NONAME
	 ?ShowWindow@CDockWorker@@QAEXH@Z @ 5504 NONAME
	 ?ShsndPlaySound@@YAHPBDI@Z @ 5505 NONAME
	 ?Single@CMultiSlob@@QAEXPAVCSlob@@H@Z @ 5506 NONAME
	 ?size@?$CQueue@VFCItem@@AAV1@@@QAEIXZ @ 5507 NONAME
	 ?SizeCallBack@CFontColorDlg@@SGHPBUtagENUMLOGFONTA@@PBUtagNEWTEXTMETRICA@@HJ@Z @ 5508 NONAME
	 ?SizeColumnToFit@CGridWnd@@QAEXH@Z @ 5509 NONAME
	 ?SizeComboToContent@@YAXPAVCComboBox@@H@Z @ 5510 NONAME
	 ?SizeFromTracker@CGridCaptionCell@@QAEXXZ @ 5511 NONAME
	 ?SizeRow@CDockWnd@@IAEXPAU_DWI@@HH@Z @ 5512 NONAME
	 ?SizeTest@CCustomBar@@IAEHVCPoint@@@Z @ 5513 NONAME
	 ?SizeViewToTree@CTreeCtl@@QAEXPAVCPartFrame@@@Z @ 5514 NONAME
	 ?Skip@CEnumOleUndoUnit@@UAGJK@Z @ 5515 NONAME
	 ?Skip@XEnumVariant@CEnumVariantObjs@@UAGJK@Z @ 5516 NONAME
	 ?SkipDrive@@YAPADPAD@Z @ 5517 NONAME
	 ?SortColumn@CGridWnd@@UAEXHH@Z @ 5518 NONAME
	 ?SortRow@CDockWnd@@IAEXPAU_DWI@@HPAVCWnd@@@Z @ 5519 NONAME
	 ?Spawn@CTool@@QAEIXZ @ 5520 NONAME
	 ?StartNewPageSet@CSheetWnd@@QAEHXZ @ 5521 NONAME
	 ?StartNewPropertyPageSet@@YAHXZ @ 5522 NONAME
	 ?Status@CTipFile@@UAE?AW4TipStatus@@XZ @ 5523 NONAME
	 ?Status@CTipFileManager@@UAE?AW4TipStatus@@XZ @ 5524 NONAME
	 ?StatusBeginPercentDone@@YAXPBD@Z @ 5525 NONAME
	 ?StatusEndPercentDone@@YAXXZ @ 5526 NONAME
	 ?StatusOnIdle@@YAXXZ @ 5527 NONAME
	 ?StatusPercentDone@@YAXH@Z @ 5528 NONAME
	 ?StealMenuMessage@CASBar@@SAHPAUtagMSG@@@Z @ 5529 NONAME
	 ?StringEditorEditToProp@@YAXPAD@Z @ 5530 NONAME
	 ?StringEditorPropToEdit@@YAXAAVCString@@@Z @ 5531 NONAME
	 ?StripAmpersands@GLOBAL_DATA@@SAHPADH@Z @ 5532 NONAME
	 ?StripName@@YA?AVCString@@PBD@Z @ 5533 NONAME
	 ?StripPath@@YA?AVCString@@PBD@Z @ 5534 NONAME
	 ?stristr@@YAPADPAD0@Z @ 5535 NONAME
	 ?SubclassDlgItem@CCheckList@@QAEHIPAVCWnd@@@Z @ 5536 NONAME
	 ?SubclassDlgItem@CGridWnd@@QAEHIPAVCWnd@@@Z @ 5537 NONAME
	 ?SubclassDlgItem@CIconList@@QAEHIPAVCWnd@@@Z @ 5538 NONAME
	 ?SubclassDlgItem@CMenuBtn@@QAEHIPAVCWnd@@@Z @ 5539 NONAME
	 ?SubclassEdit@CDockCombo@@UAEPAVCWnd@@XZ @ 5540 NONAME
	 ?SubclassEdit@CToolbarEditCombo@@UAEPAVCWnd@@XZ @ 5541 NONAME
	 ?SubstituteBytes@@YAPBDAAVCString@@PBDPAD@Z @ 5542 NONAME
	 ?SuppressKey@CTap@@QBEHI@Z @ 5543 NONAME
	 ?SushiCancelModes@@YAXPAUHWND__@@@Z @ 5544 NONAME
	 ?SushiGetFileTitle@@YAIPBDPADI@Z @ 5545 NONAME
	 ?SushiLoadLibrary@@YAPAUHINSTANCE__@@PBDHW4SETUP_TYPE@@@Z @ 5546 NONAME
	 ?SushiRestoreKey@@YAXPAUHKEY__@@ABVCString@@@Z @ 5547 NONAME
	 ?SwapTool@CToolList@@QAEXHH@Z @ 5548 NONAME
	 ?SymTab@CTap@@QBEXXZ @ 5549 NONAME
	 ?Sync@CAutoDocuments@@QAEXXZ @ 5550 NONAME
	 ?Sync@CAutoWindows@@IAEXXZ @ 5551 NONAME
	 ?Sync@CBMenuItem@@QAEXXZ @ 5552 NONAME
	 ?SyncCallback@CFileChange@@KAXPBVFCItem@@@Z @ 5553 NONAME
	 ?SysColorChange@CBMenuPopup@@SAXXZ @ 5554 NONAME
	 ?SysColorChange@CDockManager@@QAEXXZ @ 5555 NONAME
	 ?TabbedTextOutA@CDC@@UAE?AVCSize@@HHPBDHHPAHH@Z @ 5556 NONAME
	 ?TabFromPoint@CTabRow@@QAEHVCPoint@@@Z @ 5557 NONAME
	 ?Terminate@CFileChange@@QAEXXZ @ 5558 NONAME
	 ?Terminate@CIdeInterface@@QAEXXZ @ 5559 NONAME
	 ?Terminate@XMsoComponent@CIPCompMainFrame@@UAGXXZ @ 5560 NONAME
	 ?TermPage@C3dPropertyPage@@UAEXXZ @ 5561 NONAME
	 ?TermPage@COleAllPage@@UAEXXZ @ 5562 NONAME
	 ?TermPage@COlePage@@UAEXXZ @ 5563 NONAME
	 ?TermStdCompMgr@CTheApp@@QAEXXZ @ 5564 NONAME
	 ?TextOutA@CDC@@UAEHHHPBDH@Z @ 5565 NONAME
	 ?ThreadCall@CFileChange@@IAEHPBDP6AXPBVFCItem@@K@ZW4Op@2@H@Z @ 5566 NONAME
	 ?ThreadCleanup@CFileChange@@IAEXXZ @ 5567 NONAME
	 ?ThreadDeleteDirectory@CFileChange@@IAEXI@Z @ 5568 NONAME
	 ?ThreadEntry@CFileChange@@KAIPAX@Z @ 5569 NONAME
	 ?ThrowFileExceptionFromScode@@YAXJ@Z @ 5570 NONAME
	 ?ThrowZombifiedException@CAutoObj@@UAEXXZ @ 5571 NONAME
	 ?Tip@CTipFile@@UAE?AW4TipStatus@@AAVCString@@@Z @ 5572 NONAME
	 ?Tip@CTipFileManager@@UAE?AW4TipStatus@@AAVCString@@@Z @ 5573 NONAME
	 ?TipOfTheDay@@YAHH@Z @ 5574 NONAME
	 ?ToggleExtHelp@@YAHXZ @ 5575 NONAME
	 ?ToggleFloat@CDockWorker@@QAEXXZ @ 5576 NONAME
	 ?ToggleMDIState@CDockWorker@@QAEXXZ @ 5577 NONAME
	 ?ToString@CDirList@@QAEHAAVCString@@@Z @ 5578 NONAME
	 ?TrackButtonMove@CToolCustomizer@@QAEHAAVCPoint@@AAHPAPAVCToolBarProxy@@PAHPAW4ORIENTATION@@PAIH@Z @ 5579 NONAME
	 ?TrackButtonSize@CToolCustomizer@@QAEHVCPoint@@AAVCRect@@@Z @ 5580 NONAME
	 ?TrackDropDownMenu@CBMenuPopup@@QAEIHHPAVCWnd@@PBUtagRECT@@VCRect@@0HPAHH@Z @ 5581 NONAME
	 ?TrackMenu@CBMenuPopup@@QAEIIHHPAVCWnd@@PBUtagRECT@@VCRect@@H@Z @ 5582 NONAME
	 ?TrackMove@CDockWorker@@IAEHVCPoint@@AAW4DOCKPOS@@AAVCRect@@@Z @ 5583 NONAME
	 ?TrackPopup@CBContextPopupMenu@@QAEIIHHPAVCWnd@@@Z @ 5584 NONAME
	 ?TrackPopup@CBContextPopupMenu@@QAEIIHHPAVCWnd@@VCRect@@@Z @ 5585 NONAME
	 ?TrackPopup@CContextPopupMenu@@QAEHIHHPAVCWnd@@@Z @ 5586 NONAME
	 ?TrackPopupMenu@CBMenuPopup@@QAEIIHHPAVCWnd@@PBUtagRECT@@@Z @ 5587 NONAME
	 ?TrackPopupMenuEx@CBMenuPopup@@QAEIIHHPAVCWnd@@VCRect@@PBUtagRECT@@@Z @ 5588 NONAME
	 ?TrackSize@CDockWnd@@IAEHVCPoint@@0AAH@Z @ 5589 NONAME
	 ?TrackSize@CDockWorker@@IAEHVCPoint@@IAAVCRect@@@Z @ 5590 NONAME
	 ?TranslateAcceleratorA@XPropertyPageSite@COlePage@@UAGJPAUtagMSG@@@Z @ 5591 NONAME
	 ?TranslateMessage@CKeymap@@QAEHPAVCWnd@@PAUtagMSG@@@Z @ 5592 NONAME
	 ?Truncate@CUndoStack@@AAEXXZ @ 5593 NONAME
	 ?UIActivateForMe@XOleIPCompUIMgr@CIPCompFrameHook@@UAGJKABU_GUID@@PAUIOleInPlaceActiveObject@@PAUIOleCommandTarget@@KPAJ@Z @ 5594 NONAME
	 ?UnderlineTextOut@GLOBAL_DATA@@QAEXPAVCDC@@PBVCRect@@PBDI@Z @ 5595 NONAME
	 ?Undo@CAutoDocumentDefault@@IAEHXZ @ 5596 NONAME
	 ?Undo@XGenericDocument@CAutoDocumentDefault@@EAGJPAF@Z @ 5597 NONAME
	 ?UndoAction@CMultiSlob@@UAEXPAVCSlobSequence@@I@Z @ 5598 NONAME
	 ?UndoAction@CSlob@@UAEXPAVCSlobSequence@@I@Z @ 5599 NONAME
	 ?UndoEvents@CDropControl@@QAEXH@Z @ 5600 NONAME
	 ?UndoPendingValidate@COleAllPage@@UAEHXZ @ 5601 NONAME
	 ?UndoPendingValidate@COlePage@@UAEHXZ @ 5602 NONAME
	 ?UndoPendingValidate@CSheetWnd@@QAEHXZ @ 5603 NONAME
	 ?UndoPendingValidate@CSlobPage@@UAEHXZ @ 5604 NONAME
	 ?UndoTo@COleUndoManager@@UAGJPAUIOleUndoUnit@@@Z @ 5605 NONAME
	 ?Unload@CImageWell@@QAEXXZ @ 5606 NONAME
	 ?UnloadBitmap@CPackage@@UAEXXZ @ 5607 NONAME
	 ?UnloadPackageBitmaps@CTheApp@@QAEXXZ @ 5608 NONAME
	 ?UnloadPackages@CTheApp@@QAEXXZ @ 5609 NONAME
	 ?UnsubclassCtl@CGridCtl3dInterface@@QAEXPAUHWND__@@@Z @ 5610 NONAME
	 ?Update@CCPLReg@@QAEXXZ @ 5611 NONAME
	 ?Update@CFormatInfo@@QAEXABV1@HH@Z @ 5612 NONAME
	 ?UpdateAllAutoColors@CFCDialogState@@QAEXXZ @ 5613 NONAME
	 ?UpdateAllAutoColors@CFormatInfo@@QAEXXZ @ 5614 NONAME
	 ?UpdateAllLogFonts@CFormatInfo@@QAEXXZ @ 5615 NONAME
	 ?UpdateAllViews@CFindCombo@@SAXXZ @ 5616 NONAME
	 ?UpdateAutoColors@CFormatInfo@@QAEXPAUFMT_WINDOW@@@Z @ 5617 NONAME
	 ?UpdateAvailable@CDockWorker@@QAEXH@Z @ 5618 NONAME
	 ?UpdateButton@CCustomBar@@UAEXH@Z @ 5619 NONAME
	 ?UpdateButton@COldToolBar@@MAEXH@Z @ 5620 NONAME
	 ?UpdateButtons@CFindStringDlg@@IAEXH@Z @ 5621 NONAME
	 ?UpdateChangedProperties@COleAllPage@@IAEXXZ @ 5622 NONAME
	 ?UpdateCheck@CToolbarDialog@@QAEXI@Z @ 5623 NONAME
	 ?UpdateColor@@YAHAAUAUTO_COLOR@@AAKABU1@K2K@Z @ 5624 NONAME
	 ?UpdateControls@CCustomButtonDlg@@IAEXXZ @ 5625 NONAME
	 ?UpdateDividerBitmap@CWidgetScrollBar@@QAEXHH@Z @ 5626 NONAME
	 ?UpdateDropDown@CFindCombo@@QAEXXZ @ 5627 NONAME
	 ?UpdateEditControl@CPropList@@IAEXXZ @ 5628 NONAME
	 ?UpdateEnumData@COleAllPage@@QAEXPAVCPropItem@@@Z @ 5629 NONAME
	 ?UpdateEnumIntData@COleAllPage@@IAEHHJPAVCPropItem@@J@Z @ 5630 NONAME
	 ?UpdateEnumStringData@COleAllPage@@IAEHPAUIDispatch@@JPAVCPropItem@@H@Z @ 5631 NONAME
	 ?UpdateFindCombos@@YAXXZ @ 5632 NONAME
	 ?UpdateFindInfo@CFindCombo@@QAEHH@Z @ 5633 NONAME
	 ?UpdateFromRegistry@CFormatInfo@@QAEXXZ @ 5634 NONAME
	 ?UpdateGlyph@CBMenuItem@@QAEXXZ @ 5635 NONAME
	 ?UpdateGrid@CHelpKeyWnd@@QAEXH@Z @ 5636 NONAME
	 ?UpdateIPCToolbarControl@CIPCompDoc@@UAEXPAU_GUID@@KK@Z @ 5637 NONAME
	 ?UpdateLogFont@CFormatInfo@@SAXPAUFMT_WINDOW@@@Z @ 5638 NONAME
	 ?UpdateMDIIcon@CCustomBar@@UAEXXZ @ 5639 NONAME
	 ?UpdateMDIState@CWorkspaceDlg@@QAEXH@Z @ 5640 NONAME
	 ?UpdateMenu@CBRecentFileList@@UAEXPAVCCmdUI@@@Z @ 5641 NONAME
	 ?UpdateMenuCommand@@YAXPAVCCmdUI@@@Z @ 5642 NONAME
	 ?UpdateMode@Menu@@YAXH@Z @ 5643 NONAME
	 ?UpdateMultiSelectOnNT@C3dFileDialog@@QAEXXZ @ 5644 NONAME
	 ?UpdateProjectCommands@CMainFrame@@QAEXXZ @ 5645 NONAME
	 ?UpdateProperty@CPropListBox@@QAEHXZ @ 5646 NONAME
	 ?UpdatePropertyBrowser@@YAXXZ @ 5647 NONAME
	 ?UpdateRepCount@CTheApp@@QAEXH@Z @ 5648 NONAME
	 ?UpdateRepeatStatus@CTheApp@@QAEXXZ @ 5649 NONAME
	 ?UpdateSampleFont@CFontColorDlg@@QAEXXZ @ 5650 NONAME
	 ?UpdateSaveAll@CPartDoc@@SAXH@Z @ 5651 NONAME
	 ?UpdateState@CFindStringDlg@@IAEXXZ @ 5652 NONAME
	 ?UpdateStateFlags@CTap@@QAEXXZ @ 5653 NONAME
	 ?UpdateSysColors@GLOBAL_DATA@@QAEXXZ @ 5654 NONAME
	 ?UpdateSysMetrics@GLOBAL_DATA@@QAEXXZ @ 5655 NONAME
	 ?UpdateText@CCustomBar@@UAEXHPBD@Z @ 5656 NONAME
	 ?UpdateText@COldToolBar@@UAEXHPBD@Z @ 5657 NONAME
	 ?UpdateType@C3dFileDialog@@QAEXPBD@Z @ 5658 NONAME
	 ?UpdateUI@COpenDocsDlg@@AAEXXZ @ 5659 NONAME
	 ?UpdateUI@XOleIPCompUIMgr@CIPCompFrameHook@@UAGJKHK@Z @ 5660 NONAME
	 ?UpdateView@CFindCombo@@UAEXXZ @ 5661 NONAME
	 ?UpdateVisible@CToolbarDialog@@QAEHH@Z @ 5662 NONAME
	 ?UseExtHelp@@YAHXZ @ 5663 NONAME
	 ?UseHMENU@Menu@@YAXH@Z @ 5664 NONAME
	 ?UseOLE@Menu@@YAXH@Z @ 5665 NONAME
	 ?UsesIME@CPartView@@UAEHXZ @ 5666 NONAME
	 ?Validate@COleAllPage@@UAEHXZ @ 5667 NONAME
	 ?Validate@COlePage@@UAEHXZ @ 5668 NONAME
	 ?Validate@CSheetWnd@@QAEHXZ @ 5669 NONAME
	 ?Validate@CSlobPage@@UAEHXZ @ 5670 NONAME
	 ?ValidatePropertyBrowser@@YAHXZ @ 5671 NONAME
	 ?ValidateRequest@CSheetWnd@@QAEHXZ @ 5672 NONAME
	 ?ValidateTab@CCustomizeToolsDialog@@MAEHXZ @ 5673 NONAME
	 ?ValidateTab@CDlgTab@@UAEHXZ @ 5674 NONAME
	 ?ValidateTab@CNewFileDialogTab@@UAEHXZ @ 5675 NONAME
	 ?ValidateTab@CNewOtherDocDialogTab@@UAEHXZ @ 5676 NONAME
	 ?ValidateTab@CNewProjectDialogTab@@UAEHXZ @ 5677 NONAME
	 ?ValidateTab@CNewTemplateDialogTab@@UAEHXZ @ 5678 NONAME
	 ?ValidateTab@CNewWorkspaceDialogTab@@UAEHXZ @ 5679 NONAME
	 ?ValidateTab@CWorkspaceDlg@@UAEHXZ @ 5680 NONAME
	 ?VerifyMenuSize@CBMenuPopup@@QAEXH@Z @ 5681 NONAME
	 ?VertCenterControls@C3dDialogBar@@QAEXH@Z @ 5682 NONAME
	 ?VetoService@CIPCompDoc@@UAEJABU_GUID@@0@Z @ 5683 NONAME
	 ?VkToAscii@CTap@@QBEGIIAAUtagACCEL@@@Z @ 5684 NONAME
	 ?VMsgText@@YAPBDAAVCString@@HPAD@Z @ 5685 NONAME
	 ?VScroll@CGridWnd@@UAEXH@Z @ 5686 NONAME
	 ?WaitAndHandleIt@CFileChange@@IAEXXZ @ 5687 NONAME
	 ?WaitChildProcessFinish@CConsoleSpawner@@CAXPAX@Z @ 5688 NONAME
	 ?WideStrLen@@YAHPAG@Z @ 5689 NONAME
	 ?WindowProc@C3dDialogBar@@UAEJIIJ@Z @ 5690 NONAME
	 ?WindowProc@CASBar@@MAEJIIJ@Z @ 5691 NONAME
	 ?WindowProc@CBorderBar@@MAEJIIJ@Z @ 5692 NONAME
	 ?WindowProc@CDockCombo@@MAEJIIJ@Z @ 5693 NONAME
	 ?WindowProc@CDockComboEdit@@MAEJIIJ@Z @ 5694 NONAME
	 ?WindowProc@CDockEdit@@MAEJIIJ@Z @ 5695 NONAME
	 ?WindowProc@CDropControl@@MAEJIIJ@Z @ 5696 NONAME
	 ?WindowProc@CGridControlWnd@@UAEJIIJ@Z @ 5697 NONAME
	 ?WindowProc@CMainFrame@@MAEJIIJ@Z @ 5698 NONAME
	 ?WindowProc@CToolbarEditComboEdit@@MAEJIIJ@Z @ 5699 NONAME
	 ?WindowWalk@CFCDialogState@@QBE?AW4WW_RESULT@1@W4WW_ACTION@1@@Z @ 5700 NONAME
	 ?WinHelpA@CMainFrame@@MAEXKI@Z @ 5701 NONAME
	 ?WorkerFromID@CDockManager@@QAEPAVCDockWorker@@IPAPAU__POSITION@@@Z @ 5702 NONAME
	 ?WorkerFromWindow@CDockManager@@QAEPAVCDockWorker@@PAVCWnd@@PAPAU__POSITION@@@Z @ 5703 NONAME
	 ?WorkerMessage@CDockManager@@QAEJIPAUHWND__@@J@Z @ 5704 NONAME
	 ?Write@CTipState@@QAEHPBD@Z @ 5705 NONAME
	 ?WriteList@CTypedRecentFileList@@UAEXXZ @ 5706 NONAME
	 ?WriteLog@CTheApp@@UAEHPBDH@Z @ 5707 NONAME
	 ?WriteProfile@CHelpKeyWnd@@QAEXXZ @ 5708 NONAME
	 ?WriteReg@CKeymap@@QAEXPBD@Z @ 5709 NONAME
	 ?WriteRegData@@YAHPBD0PAX@Z @ 5710 NONAME
	 ?WriteRegDataCore@@YAHPAUHKEY__@@PBD1PAX@Z @ 5711 NONAME
	 ?WriteRegInt@@YAHPBD0H@Z @ 5712 NONAME
	 ?WriteRegIStream@@YAHPBD0PAUIStream@@@Z @ 5713 NONAME
	 ?WriteRegRect@@YAXPBD0ABVCRect@@@Z @ 5714 NONAME
	 ?WriteRegString@@YAHPBD00@Z @ 5715 NONAME
	 ?WriteRegWorkspaceDir@@YAXABVCString@@@Z @ 5716 NONAME
	 ?WriteToDest@CInitFile@@IAEHXZ @ 5717 NONAME
	 ?Zombify@CApplication@@QAEXXZ @ 5718 NONAME
